
bin/main:     file format elf32-littlearm


Disassembly of section .text:

00000000 <Vector_Init>:
       0:	e59ff018 	ldr	pc, [pc, #24]	; 20 <Reset_Addr>
       4:	e59ff018 	ldr	pc, [pc, #24]	; 24 <Undefined_Addr>
       8:	e59ff018 	ldr	pc, [pc, #24]	; 28 <SWI_Addr>
       c:	e59ff018 	ldr	pc, [pc, #24]	; 2c <Prefetch_Addr>
      10:	e59ff018 	ldr	pc, [pc, #24]	; 30 <Abort_Addr>
      14:	e320f000 	nop	{0}
      18:	e59ff014 	ldr	pc, [pc, #20]	; 34 <IRQ_Addr>
      1c:	e59ff014 	ldr	pc, [pc, #20]	; 38 <FIQ_Addr>

00000020 <Reset_Addr>:
      20:	0000003c 	andeq	r0, r0, ip, lsr r0

00000024 <Undefined_Addr>:
      24:	00000044 	andeq	r0, r0, r4, asr #32

00000028 <SWI_Addr>:
      28:	00000078 	andeq	r0, r0, r8, ror r0

0000002c <Prefetch_Addr>:
      2c:	0000007c 	andeq	r0, r0, ip, ror r0

00000030 <Abort_Addr>:
      30:	0000007c 	andeq	r0, r0, ip, ror r0

00000034 <IRQ_Addr>:
      34:	0000007c 	andeq	r0, r0, ip, ror r0

00000038 <FIQ_Addr>:
      38:	0000007c 	andeq	r0, r0, ip, ror r0

0000003c <Reset_Handler>:
      3c:	fa000023 	blx	d0 <_mainCRTStartup>
      40:	eafffffe 	b	40 <Reset_Handler+0x4>

00000044 <Undefined_Handler>:
      44:	e94d7fff 	stmdb	sp, {r0, r1, r2, r3, r4, r5, r6, r7, r8, r9, sl, fp, ip, sp, lr}^
      48:	e320f000 	nop	{0}
      4c:	e24dd03c 	sub	sp, sp, #60	; 0x3c
      50:	e14f0000 	mrs	r0, SPSR
      54:	e24e1002 	sub	r1, lr, #2
      58:	e3100020 	tst	r0, #32
      5c:	eafffffe 	b	5c <Undefined_Handler+0x18>
      60:	02411002 	subeq	r1, r1, #2
      64:	e92d0002 	stmfd	sp!, {r1}
      68:	e92d0001 	stmfd	sp!, {r0}
      6c:	e320f000 	nop	{0}
      70:	e1a0000d 	mov	r0, sp
      74:	eafffffe 	b	74 <Undefined_Handler+0x30>

00000078 <SWI_Handler>:
      78:	eafffffe 	b	78 <SWI_Handler>

0000007c <Abort_Handler>:
      7c:	eafffffe 	b	7c <Abort_Handler>

00000080 <__do_global_dtors_aux>:
      80:	b510      	push	{r4, lr}
      82:	f243 741c 	movw	r4, #14108	; 0x371c
      86:	f2c0 0400 	movt	r4, #0
      8a:	7823      	ldrb	r3, [r4, #0]
      8c:	b963      	cbnz	r3, a8 <__do_global_dtors_aux+0x28>
      8e:	f240 0300 	movw	r3, #0
      92:	f2c0 0300 	movt	r3, #0
      96:	b12b      	cbz	r3, a4 <__do_global_dtors_aux+0x24>
      98:	f243 7010 	movw	r0, #14096	; 0x3710
      9c:	f2c0 0000 	movt	r0, #0
      a0:	f3af 8000 	nop.w
      a4:	2301      	movs	r3, #1
      a6:	7023      	strb	r3, [r4, #0]
      a8:	bd10      	pop	{r4, pc}
      aa:	bf00      	nop

000000ac <frame_dummy>:
      ac:	b508      	push	{r3, lr}
      ae:	f240 0300 	movw	r3, #0
      b2:	f2c0 0300 	movt	r3, #0
      b6:	b14b      	cbz	r3, cc <frame_dummy+0x20>
      b8:	f243 7120 	movw	r1, #14112	; 0x3720
      bc:	f243 7010 	movw	r0, #14096	; 0x3710
      c0:	f2c0 0100 	movt	r1, #0
      c4:	f2c0 0000 	movt	r0, #0
      c8:	f3af 8000 	nop.w
      cc:	bd08      	pop	{r3, pc}
      ce:	bf00      	nop

000000d0 <_mainCRTStartup>:
      d0:	4b15      	ldr	r3, [pc, #84]	; (128 <_mainCRTStartup+0x58>)
      d2:	2b00      	cmp	r3, #0
      d4:	bf08      	it	eq
      d6:	4b13      	ldreq	r3, [pc, #76]	; (124 <_mainCRTStartup+0x54>)
      d8:	469d      	mov	sp, r3
      da:	f5a3 3a80 	sub.w	sl, r3, #65536	; 0x10000
      de:	2100      	movs	r1, #0
      e0:	468b      	mov	fp, r1
      e2:	460f      	mov	r7, r1
      e4:	4813      	ldr	r0, [pc, #76]	; (134 <_mainCRTStartup+0x64>)
      e6:	4a14      	ldr	r2, [pc, #80]	; (138 <_mainCRTStartup+0x68>)
      e8:	1a12      	subs	r2, r2, r0
      ea:	f000 fd7d 	bl	be8 <memset>
      ee:	4b0f      	ldr	r3, [pc, #60]	; (12c <_mainCRTStartup+0x5c>)
      f0:	2b00      	cmp	r3, #0
      f2:	d000      	beq.n	f6 <_mainCRTStartup+0x26>
      f4:	4798      	blx	r3
      f6:	4b0e      	ldr	r3, [pc, #56]	; (130 <_mainCRTStartup+0x60>)
      f8:	2b00      	cmp	r3, #0
      fa:	d000      	beq.n	fe <_mainCRTStartup+0x2e>
      fc:	4798      	blx	r3
      fe:	2000      	movs	r0, #0
     100:	2100      	movs	r1, #0
     102:	0004      	movs	r4, r0
     104:	000d      	movs	r5, r1
     106:	480d      	ldr	r0, [pc, #52]	; (13c <_mainCRTStartup+0x6c>)
     108:	2800      	cmp	r0, #0
     10a:	d002      	beq.n	112 <_mainCRTStartup+0x42>
     10c:	480c      	ldr	r0, [pc, #48]	; (140 <_mainCRTStartup+0x70>)
     10e:	f3af 8000 	nop.w
     112:	f000 fd35 	bl	b80 <__libc_init_array>
     116:	0020      	movs	r0, r4
     118:	0029      	movs	r1, r5
     11a:	f000 ea54 	blx	5c4 <main>
     11e:	f000 fbc7 	bl	8b0 <exit>
     122:	bf00      	nop
     124:	00080000 	andeq	r0, r8, r0
     128:	07fffff8 			; <UNDEFINED> instruction: 0x07fffff8
     12c:	00000568 	andeq	r0, r0, r8, ror #10
     130:	000005ac 	andeq	r0, r0, ip, lsr #11
     134:	0000370e 	andeq	r3, r0, lr, lsl #14
     138:	000037f0 	strdeq	r3, [r0], -r0
	...

00000144 <_write>:
     144:	e52de004 	push	{lr}		; (str lr, [sp, #-4]!)
     148:	e24dd01c 	sub	sp, sp, #28
     14c:	e58d000c 	str	r0, [sp, #12]
     150:	e58d1008 	str	r1, [sp, #8]
     154:	e58d2004 	str	r2, [sp, #4]
     158:	e59d300c 	ldr	r3, [sp, #12]
     15c:	e3530001 	cmp	r3, #1
     160:	0a000002 	beq	170 <_write+0x2c>
     164:	e3530002 	cmp	r3, #2
     168:	0a000012 	beq	1b8 <_write+0x74>
     16c:	ea000024 	b	204 <_write+0xc0>
     170:	e3a03000 	mov	r3, #0
     174:	e58d3014 	str	r3, [sp, #20]
     178:	ea000009 	b	1a4 <_write+0x60>
     17c:	e59d3008 	ldr	r3, [sp, #8]
     180:	e2832001 	add	r2, r3, #1
     184:	e58d2008 	str	r2, [sp, #8]
     188:	e5d33000 	ldrb	r3, [r3]
     18c:	e1a01003 	mov	r1, r3
     190:	e3a0020e 	mov	r0, #-536870912	; 0xe0000000
     194:	eb0000c6 	bl	4b4 <Zynq7000_UART_SENDCHAR>
     198:	e59d3014 	ldr	r3, [sp, #20]
     19c:	e2833001 	add	r3, r3, #1
     1a0:	e58d3014 	str	r3, [sp, #20]
     1a4:	e59d2014 	ldr	r2, [sp, #20]
     1a8:	e59d3004 	ldr	r3, [sp, #4]
     1ac:	e1520003 	cmp	r2, r3
     1b0:	bafffff1 	blt	17c <_write+0x38>
     1b4:	ea000018 	b	21c <_write+0xd8>
     1b8:	e3a03000 	mov	r3, #0
     1bc:	e58d3014 	str	r3, [sp, #20]
     1c0:	ea00000a 	b	1f0 <_write+0xac>
     1c4:	e59d3008 	ldr	r3, [sp, #8]
     1c8:	e2832001 	add	r2, r3, #1
     1cc:	e58d2008 	str	r2, [sp, #8]
     1d0:	e5d33000 	ldrb	r3, [r3]
     1d4:	e1a01003 	mov	r1, r3
     1d8:	e3a00a01 	mov	r0, #4096	; 0x1000
     1dc:	e34e0000 	movt	r0, #57344	; 0xe000
     1e0:	eb0000b3 	bl	4b4 <Zynq7000_UART_SENDCHAR>
     1e4:	e59d3014 	ldr	r3, [sp, #20]
     1e8:	e2833001 	add	r3, r3, #1
     1ec:	e58d3014 	str	r3, [sp, #20]
     1f0:	e59d2014 	ldr	r2, [sp, #20]
     1f4:	e59d3004 	ldr	r3, [sp, #4]
     1f8:	e1520003 	cmp	r2, r3
     1fc:	bafffff0 	blt	1c4 <_write+0x80>
     200:	ea000005 	b	21c <_write+0xd8>
     204:	fa0001a6 	blx	8a4 <__errno>
     208:	e1a02000 	mov	r2, r0
     20c:	e3a03009 	mov	r3, #9
     210:	e5823000 	str	r3, [r2]
     214:	e3e03000 	mvn	r3, #0
     218:	ea000000 	b	220 <_write+0xdc>
     21c:	e59d3004 	ldr	r3, [sp, #4]
     220:	e1a00003 	mov	r0, r3
     224:	e28dd01c 	add	sp, sp, #28
     228:	e49df004 	pop	{pc}		; (ldr pc, [sp], #4)

0000022c <_read>:
     22c:	e52de004 	push	{lr}		; (str lr, [sp, #-4]!)
     230:	e24dd024 	sub	sp, sp, #36	; 0x24
     234:	e58d000c 	str	r0, [sp, #12]
     238:	e58d1008 	str	r1, [sp, #8]
     23c:	e58d2004 	str	r2, [sp, #4]
     240:	e3a03000 	mov	r3, #0
     244:	e58d3018 	str	r3, [sp, #24]
     248:	e59d300c 	ldr	r3, [sp, #12]
     24c:	e3530000 	cmp	r3, #0
     250:	1a00003b 	bne	344 <_read+0x118>
     254:	e3a03000 	mov	r3, #0
     258:	e58d301c 	str	r3, [sp, #28]
     25c:	ea00002f 	b	320 <_read+0xf4>
     260:	e3a0020e 	mov	r0, #-536870912	; 0xe0000000
     264:	eb0000a3 	bl	4f8 <Zynq7000_UART_GETCHAR>
     268:	e1a03000 	mov	r3, r0
     26c:	e5cd3017 	strb	r3, [sp, #23]
     270:	e5dd3017 	ldrb	r3, [sp, #23]
     274:	e1a01003 	mov	r1, r3
     278:	e3a0020e 	mov	r0, #-536870912	; 0xe0000000
     27c:	eb00008c 	bl	4b4 <Zynq7000_UART_SENDCHAR>
     280:	e59d3008 	ldr	r3, [sp, #8]
     284:	e2832001 	add	r2, r3, #1
     288:	e58d2008 	str	r2, [sp, #8]
     28c:	e5dd2017 	ldrb	r2, [sp, #23]
     290:	e5c32000 	strb	r2, [r3]
     294:	e59d3018 	ldr	r3, [sp, #24]
     298:	e2833001 	add	r3, r3, #1
     29c:	e58d3018 	str	r3, [sp, #24]
     2a0:	e5dd3017 	ldrb	r3, [sp, #23]
     2a4:	e353000d 	cmp	r3, #13
     2a8:	1a000015 	bne	304 <_read+0xd8>
     2ac:	e59d301c 	ldr	r3, [sp, #28]
     2b0:	e2833001 	add	r3, r3, #1
     2b4:	e58d301c 	str	r3, [sp, #28]
     2b8:	e59d201c 	ldr	r2, [sp, #28]
     2bc:	e59d3004 	ldr	r3, [sp, #4]
     2c0:	e1520003 	cmp	r2, r3
     2c4:	aa00001a 	bge	334 <_read+0x108>
     2c8:	e3a0300a 	mov	r3, #10
     2cc:	e5cd3017 	strb	r3, [sp, #23]
     2d0:	e5dd3017 	ldrb	r3, [sp, #23]
     2d4:	e1a01003 	mov	r1, r3
     2d8:	e3a0020e 	mov	r0, #-536870912	; 0xe0000000
     2dc:	eb000074 	bl	4b4 <Zynq7000_UART_SENDCHAR>
     2e0:	e59d3008 	ldr	r3, [sp, #8]
     2e4:	e2832001 	add	r2, r3, #1
     2e8:	e58d2008 	str	r2, [sp, #8]
     2ec:	e3a0200a 	mov	r2, #10
     2f0:	e5c32000 	strb	r2, [r3]
     2f4:	e59d3018 	ldr	r3, [sp, #24]
     2f8:	e2833001 	add	r3, r3, #1
     2fc:	e58d3018 	str	r3, [sp, #24]
     300:	ea00000b 	b	334 <_read+0x108>
     304:	e5dd3017 	ldrb	r3, [sp, #23]
     308:	e353000a 	cmp	r3, #10
     30c:	0a00000a 	beq	33c <_read+0x110>
     310:	e320f000 	nop	{0}
     314:	e59d301c 	ldr	r3, [sp, #28]
     318:	e2833001 	add	r3, r3, #1
     31c:	e58d301c 	str	r3, [sp, #28]
     320:	e59d201c 	ldr	r2, [sp, #28]
     324:	e59d3004 	ldr	r3, [sp, #4]
     328:	e1520003 	cmp	r2, r3
     32c:	baffffcb 	blt	260 <_read+0x34>
     330:	ea000009 	b	35c <_read+0x130>
     334:	e320f000 	nop	{0}
     338:	ea000007 	b	35c <_read+0x130>
     33c:	e320f000 	nop	{0}
     340:	ea000005 	b	35c <_read+0x130>
     344:	fa000156 	blx	8a4 <__errno>
     348:	e1a02000 	mov	r2, r0
     34c:	e3a03009 	mov	r3, #9
     350:	e5823000 	str	r3, [r2]
     354:	e3e03000 	mvn	r3, #0
     358:	ea000000 	b	360 <_read+0x134>
     35c:	e59d3018 	ldr	r3, [sp, #24]
     360:	e1a00003 	mov	r0, r3
     364:	e28dd024 	add	sp, sp, #36	; 0x24
     368:	e49df004 	pop	{pc}		; (ldr pc, [sp], #4)

0000036c <Console>:
     36c:	e92d000e 	push	{r1, r2, r3}
     370:	e52de004 	push	{lr}		; (str lr, [sp, #-4]!)
     374:	e24dd010 	sub	sp, sp, #16
     378:	e58d0004 	str	r0, [sp, #4]
     37c:	e28d3018 	add	r3, sp, #24
     380:	e58d3008 	str	r3, [sp, #8]
     384:	e3a03000 	mov	r3, #0
     388:	e58d300c 	str	r3, [sp, #12]
     38c:	e59d3004 	ldr	r3, [sp, #4]
     390:	e2433001 	sub	r3, r3, #1
     394:	e3530003 	cmp	r3, #3
     398:	979ff103 	ldrls	pc, [pc, r3, lsl #2]
     39c:	ea000013 	b	3f0 <Console+0x84>
     3a0:	000003b0 			; <UNDEFINED> instruction: 0x000003b0
     3a4:	000003d0 	ldrdeq	r0, [r0], -r0	; <UNPREDICTABLE>
     3a8:	000003c0 	andeq	r0, r0, r0, asr #7
     3ac:	000003e0 	andeq	r0, r0, r0, ror #7
     3b0:	e30330e0 	movw	r3, #12512	; 0x30e0
     3b4:	e3403000 	movt	r3, #0
     3b8:	e58d300c 	str	r3, [sp, #12]
     3bc:	ea00000f 	b	400 <Console+0x94>
     3c0:	e30330ec 	movw	r3, #12524	; 0x30ec
     3c4:	e3403000 	movt	r3, #0
     3c8:	e58d300c 	str	r3, [sp, #12]
     3cc:	ea00000b 	b	400 <Console+0x94>
     3d0:	e30330fc 	movw	r3, #12540	; 0x30fc
     3d4:	e3403000 	movt	r3, #0
     3d8:	e58d300c 	str	r3, [sp, #12]
     3dc:	ea000007 	b	400 <Console+0x94>
     3e0:	e303310c 	movw	r3, #12556	; 0x310c
     3e4:	e3403000 	movt	r3, #0
     3e8:	e58d300c 	str	r3, [sp, #12]
     3ec:	ea000003 	b	400 <Console+0x94>
     3f0:	e303311c 	movw	r3, #12572	; 0x311c
     3f4:	e3403000 	movt	r3, #0
     3f8:	e58d300c 	str	r3, [sp, #12]
     3fc:	e320f000 	nop	{0}
     400:	e3033168 	movw	r3, #12648	; 0x3168
     404:	e3403000 	movt	r3, #0
     408:	e5933000 	ldr	r3, [r3]
     40c:	e593300c 	ldr	r3, [r3, #12]
     410:	e59d100c 	ldr	r1, [sp, #12]
     414:	e1a00003 	mov	r0, r3
     418:	fa0001b2 	blx	ae8 <fiprintf>
     41c:	e3033168 	movw	r3, #12648	; 0x3168
     420:	e3403000 	movt	r3, #0
     424:	e5933000 	ldr	r3, [r3]
     428:	e593300c 	ldr	r3, [r3, #12]
     42c:	e59d2008 	ldr	r2, [sp, #8]
     430:	e59d1014 	ldr	r1, [sp, #20]
     434:	e1a00003 	mov	r0, r3
     438:	fa0002e7 	blx	fdc <vfiprintf>
     43c:	e3033168 	movw	r3, #12648	; 0x3168
     440:	e3403000 	movt	r3, #0
     444:	e5933000 	ldr	r3, [r3]
     448:	e593300c 	ldr	r3, [r3, #12]
     44c:	e3031340 	movw	r1, #13120	; 0x3340
     450:	e3401000 	movt	r1, #0
     454:	e1a00003 	mov	r0, r3
     458:	fa0001a2 	blx	ae8 <fiprintf>
     45c:	e320f000 	nop	{0}
     460:	e28dd010 	add	sp, sp, #16
     464:	e49de004 	pop	{lr}		; (ldr lr, [sp], #4)
     468:	e28dd00c 	add	sp, sp, #12
     46c:	e12fff1e 	bx	lr

00000470 <UartEnable>:
     470:	e24dd010 	sub	sp, sp, #16
     474:	e58d0004 	str	r0, [sp, #4]
     478:	e59d3004 	ldr	r3, [sp, #4]
     47c:	e5933000 	ldr	r3, [r3]
     480:	e58d300c 	str	r3, [sp, #12]
     484:	e59d300c 	ldr	r3, [sp, #12]
     488:	e3c3303c 	bic	r3, r3, #60	; 0x3c
     48c:	e58d300c 	str	r3, [sp, #12]
     490:	e59d300c 	ldr	r3, [sp, #12]
     494:	e3833014 	orr	r3, r3, #20
     498:	e58d300c 	str	r3, [sp, #12]
     49c:	e59d3004 	ldr	r3, [sp, #4]
     4a0:	e59d200c 	ldr	r2, [sp, #12]
     4a4:	e5832000 	str	r2, [r3]
     4a8:	e320f000 	nop	{0}
     4ac:	e28dd010 	add	sp, sp, #16
     4b0:	e12fff1e 	bx	lr

000004b4 <Zynq7000_UART_SENDCHAR>:
     4b4:	e24dd008 	sub	sp, sp, #8
     4b8:	e58d0004 	str	r0, [sp, #4]
     4bc:	e1a03001 	mov	r3, r1
     4c0:	e5cd3003 	strb	r3, [sp, #3]
     4c4:	e320f000 	nop	{0}
     4c8:	e59d3004 	ldr	r3, [sp, #4]
     4cc:	e593302c 	ldr	r3, [r3, #44]	; 0x2c
     4d0:	e2033010 	and	r3, r3, #16
     4d4:	e3530000 	cmp	r3, #0
     4d8:	1afffffa 	bne	4c8 <Zynq7000_UART_SENDCHAR+0x14>
     4dc:	e5dd2003 	ldrb	r2, [sp, #3]
     4e0:	e59d3004 	ldr	r3, [sp, #4]
     4e4:	e5832030 	str	r2, [r3, #48]	; 0x30
     4e8:	e5dd3003 	ldrb	r3, [sp, #3]
     4ec:	e1a00003 	mov	r0, r3
     4f0:	e28dd008 	add	sp, sp, #8
     4f4:	e12fff1e 	bx	lr

000004f8 <Zynq7000_UART_GETCHAR>:
     4f8:	e24dd010 	sub	sp, sp, #16
     4fc:	e58d0004 	str	r0, [sp, #4]
     500:	e59d3004 	ldr	r3, [sp, #4]
     504:	e5933014 	ldr	r3, [r3, #20]
     508:	e2033001 	and	r3, r3, #1
     50c:	e3530000 	cmp	r3, #0
     510:	0a000007 	beq	534 <Zynq7000_UART_GETCHAR+0x3c>
     514:	e59d3004 	ldr	r3, [sp, #4]
     518:	e5933030 	ldr	r3, [r3, #48]	; 0x30
     51c:	e5cd300e 	strb	r3, [sp, #14]
     520:	e59d3004 	ldr	r3, [sp, #4]
     524:	e3a02005 	mov	r2, #5
     528:	e5832014 	str	r2, [r3, #20]
     52c:	e5dd300e 	ldrb	r3, [sp, #14]
     530:	ea000009 	b	55c <Zynq7000_UART_GETCHAR+0x64>
     534:	e320f000 	nop	{0}
     538:	e59d3004 	ldr	r3, [sp, #4]
     53c:	e593302c 	ldr	r3, [r3, #44]	; 0x2c
     540:	e2033002 	and	r3, r3, #2
     544:	e3530002 	cmp	r3, #2
     548:	0afffffa 	beq	538 <Zynq7000_UART_GETCHAR+0x40>
     54c:	e59d3004 	ldr	r3, [sp, #4]
     550:	e5933030 	ldr	r3, [r3, #48]	; 0x30
     554:	e5cd300f 	strb	r3, [sp, #15]
     558:	e5dd300f 	ldrb	r3, [sp, #15]
     55c:	e1a00003 	mov	r0, r3
     560:	e28dd010 	add	sp, sp, #16
     564:	e12fff1e 	bx	lr

00000568 <hardware_init_hook>:
     568:	e92d4010 	push	{r4, lr}
     56c:	e3a0020e 	mov	r0, #-536870912	; 0xe0000000
     570:	ebffffbe 	bl	470 <UartEnable>
     574:	e3a00a01 	mov	r0, #4096	; 0x1000
     578:	e34e0000 	movt	r0, #57344	; 0xe000
     57c:	ebffffbb 	bl	470 <UartEnable>
     580:	e3030348 	movw	r0, #13128	; 0x3348
     584:	e3400000 	movt	r0, #0
     588:	fa0003a7 	blx	142c <puts>
     58c:	e3030368 	movw	r0, #13160	; 0x3368
     590:	e3400000 	movt	r0, #0
     594:	fa0003a4 	blx	142c <puts>
     598:	e3030388 	movw	r0, #13192	; 0x3388
     59c:	e3400000 	movt	r0, #0
     5a0:	fa0003a1 	blx	142c <puts>
     5a4:	e320f000 	nop	{0}
     5a8:	e8bd8010 	pop	{r4, pc}

000005ac <software_init_hook>:
     5ac:	e92d4010 	push	{r4, lr}
     5b0:	e3030388 	movw	r0, #13192	; 0x3388
     5b4:	e3400000 	movt	r0, #0
     5b8:	fa00039b 	blx	142c <puts>
     5bc:	e320f000 	nop	{0}
     5c0:	e8bd8010 	pop	{r4, pc}

000005c4 <main>:
     5c4:	e52de004 	push	{lr}		; (str lr, [sp, #-4]!)
     5c8:	e24dd054 	sub	sp, sp, #84	; 0x54
     5cc:	e3a00a32 	mov	r0, #204800	; 0x32000
     5d0:	fa00017c 	blx	bc8 <malloc>
     5d4:	e1a02000 	mov	r2, r0
     5d8:	e3033748 	movw	r3, #14152	; 0x3748
     5dc:	e3403000 	movt	r3, #0
     5e0:	e5832000 	str	r2, [r3]
     5e4:	e30303b4 	movw	r0, #13236	; 0x33b4
     5e8:	e3400000 	movt	r0, #0
     5ec:	fa000354 	blx	1344 <iprintf>
     5f0:	e30303bc 	movw	r0, #13244	; 0x33bc
     5f4:	e3400000 	movt	r0, #0
     5f8:	fa00038b 	blx	142c <puts>
     5fc:	e3033168 	movw	r3, #12648	; 0x3168
     600:	e3403000 	movt	r3, #0
     604:	e5933000 	ldr	r3, [r3]
     608:	e5933004 	ldr	r3, [r3, #4]
     60c:	e58d3000 	str	r3, [sp]
     610:	e3032508 	movw	r2, #13576	; 0x3508
     614:	e3402000 	movt	r2, #0
     618:	e28d3004 	add	r3, sp, #4
     61c:	e8920003 	ldm	r2, {r0, r1}
     620:	e5830000 	str	r0, [r3]
     624:	e2833004 	add	r3, r3, #4
     628:	e1c310b0 	strh	r1, [r3]
     62c:	e28d300a 	add	r3, sp, #10
     630:	e3a02000 	mov	r2, #0
     634:	e5832000 	str	r2, [r3]
     638:	e5832004 	str	r2, [r3, #4]
     63c:	e5832008 	str	r2, [r3, #8]
     640:	e1c320bc 	strh	r2, [r3, #12]
     644:	e3033168 	movw	r3, #12648	; 0x3168
     648:	e3403000 	movt	r3, #0
     64c:	e5933000 	ldr	r3, [r3]
     650:	e5933008 	ldr	r3, [r3, #8]
     654:	e58d3018 	str	r3, [sp, #24]
     658:	e303251c 	movw	r2, #13596	; 0x351c
     65c:	e3402000 	movt	r2, #0
     660:	e28d301c 	add	r3, sp, #28
     664:	e8920003 	ldm	r2, {r0, r1}
     668:	e5830000 	str	r0, [r3]
     66c:	e2833004 	add	r3, r3, #4
     670:	e1c310b0 	strh	r1, [r3]
     674:	e2833002 	add	r3, r3, #2
     678:	e1a02821 	lsr	r2, r1, #16
     67c:	e5c32000 	strb	r2, [r3]
     680:	e28d3023 	add	r3, sp, #35	; 0x23
     684:	e3a02000 	mov	r2, #0
     688:	e5832000 	str	r2, [r3]
     68c:	e5832004 	str	r2, [r3, #4]
     690:	e5832008 	str	r2, [r3, #8]
     694:	e5c3200c 	strb	r2, [r3, #12]
     698:	e3033168 	movw	r3, #12648	; 0x3168
     69c:	e3403000 	movt	r3, #0
     6a0:	e5933000 	ldr	r3, [r3]
     6a4:	e593300c 	ldr	r3, [r3, #12]
     6a8:	e58d3030 	str	r3, [sp, #48]	; 0x30
     6ac:	e3032530 	movw	r2, #13616	; 0x3530
     6b0:	e3402000 	movt	r2, #0
     6b4:	e28d3034 	add	r3, sp, #52	; 0x34
     6b8:	e8920003 	ldm	r2, {r0, r1}
     6bc:	e5830000 	str	r0, [r3]
     6c0:	e2833004 	add	r3, r3, #4
     6c4:	e1c310b0 	strh	r1, [r3]
     6c8:	e2833002 	add	r3, r3, #2
     6cc:	e1a02821 	lsr	r2, r1, #16
     6d0:	e5c32000 	strb	r2, [r3]
     6d4:	e28d303b 	add	r3, sp, #59	; 0x3b
     6d8:	e3a02000 	mov	r2, #0
     6dc:	e5832000 	str	r2, [r3]
     6e0:	e5832004 	str	r2, [r3, #4]
     6e4:	e5832008 	str	r2, [r3, #8]
     6e8:	e5c3200c 	strb	r2, [r3, #12]
     6ec:	e3a03000 	mov	r3, #0
     6f0:	e58d304c 	str	r3, [sp, #76]	; 0x4c
     6f4:	ea000032 	b	7c4 <main+0x200>
     6f8:	e59d204c 	ldr	r2, [sp, #76]	; 0x4c
     6fc:	e1a03002 	mov	r3, r2
     700:	e1a03083 	lsl	r3, r3, #1
     704:	e0833002 	add	r3, r3, r2
     708:	e1a03183 	lsl	r3, r3, #3
     70c:	e28d2050 	add	r2, sp, #80	; 0x50
     710:	e0823003 	add	r3, r2, r3
     714:	e2433050 	sub	r3, r3, #80	; 0x50
     718:	e5933000 	ldr	r3, [r3]
     71c:	e1a00003 	mov	r0, r3
     720:	fa00006c 	blx	8d8 <fileno>
     724:	e1a03000 	mov	r3, r0
     728:	e1a00003 	mov	r0, r3
     72c:	fb000382 	blx	153e <isatty>
     730:	e1a03000 	mov	r3, r0
     734:	e3530000 	cmp	r3, #0
     738:	0a00000f 	beq	77c <main+0x1b8>
     73c:	e30303d8 	movw	r0, #13272	; 0x33d8
     740:	e3400000 	movt	r0, #0
     744:	fa0002fe 	blx	1344 <iprintf>
     748:	e1a0100d 	mov	r1, sp
     74c:	e59d204c 	ldr	r2, [sp, #76]	; 0x4c
     750:	e1a03002 	mov	r3, r2
     754:	e1a03083 	lsl	r3, r3, #1
     758:	e0833002 	add	r3, r3, r2
     75c:	e1a03183 	lsl	r3, r3, #3
     760:	e0813003 	add	r3, r1, r3
     764:	e2833004 	add	r3, r3, #4
     768:	e1a01003 	mov	r1, r3
     76c:	e30303e0 	movw	r0, #13280	; 0x33e0
     770:	e3400000 	movt	r0, #0
     774:	fa0002f2 	blx	1344 <iprintf>
     778:	ea00000e 	b	7b8 <main+0x1f4>
     77c:	e30303fc 	movw	r0, #13308	; 0x33fc
     780:	e3400000 	movt	r0, #0
     784:	fa0002ee 	blx	1344 <iprintf>
     788:	e1a0100d 	mov	r1, sp
     78c:	e59d204c 	ldr	r2, [sp, #76]	; 0x4c
     790:	e1a03002 	mov	r3, r2
     794:	e1a03083 	lsl	r3, r3, #1
     798:	e0833002 	add	r3, r3, r2
     79c:	e1a03183 	lsl	r3, r3, #3
     7a0:	e0813003 	add	r3, r1, r3
     7a4:	e2833004 	add	r3, r3, #4
     7a8:	e1a01003 	mov	r1, r3
     7ac:	e3030408 	movw	r0, #13320	; 0x3408
     7b0:	e3400000 	movt	r0, #0
     7b4:	fa0002e2 	blx	1344 <iprintf>
     7b8:	e59d304c 	ldr	r3, [sp, #76]	; 0x4c
     7bc:	e2833001 	add	r3, r3, #1
     7c0:	e58d304c 	str	r3, [sp, #76]	; 0x4c
     7c4:	e59d304c 	ldr	r3, [sp, #76]	; 0x4c
     7c8:	e3530002 	cmp	r3, #2
     7cc:	daffffc9 	ble	6f8 <main+0x134>
     7d0:	e303042c 	movw	r0, #13356	; 0x342c
     7d4:	e3400000 	movt	r0, #0
     7d8:	fa000313 	blx	142c <puts>
     7dc:	e3030454 	movw	r0, #13396	; 0x3454
     7e0:	e3400000 	movt	r0, #0
     7e4:	fa0002d6 	blx	1344 <iprintf>
     7e8:	e3a03000 	mov	r3, #0
     7ec:	e58d3048 	str	r3, [sp, #72]	; 0x48
     7f0:	ea000021 	b	87c <main+0x2b8>
     7f4:	e303045c 	movw	r0, #13404	; 0x345c
     7f8:	e3400000 	movt	r0, #0
     7fc:	fa0002d0 	blx	1344 <iprintf>
     800:	e303179c 	movw	r1, #14236	; 0x379c
     804:	e3401000 	movt	r1, #0
     808:	e3030470 	movw	r0, #13424	; 0x3470
     80c:	e3400000 	movt	r0, #0
     810:	fa000311 	blx	145c <iscanf>
     814:	e3030474 	movw	r0, #13428	; 0x3474
     818:	e3400000 	movt	r0, #0
     81c:	fa0002c8 	blx	1344 <iprintf>
     820:	e303174c 	movw	r1, #14156	; 0x374c
     824:	e3401000 	movt	r1, #0
     828:	e3030470 	movw	r0, #13424	; 0x3470
     82c:	e3400000 	movt	r0, #0
     830:	fa000309 	blx	145c <iscanf>
     834:	e303374c 	movw	r3, #14156	; 0x374c
     838:	e3403000 	movt	r3, #0
     83c:	e303279c 	movw	r2, #14236	; 0x379c
     840:	e3402000 	movt	r2, #0
     844:	e303148c 	movw	r1, #13452	; 0x348c
     848:	e3401000 	movt	r1, #0
     84c:	e3a00003 	mov	r0, #3
     850:	ebfffec5 	bl	36c <Console>
     854:	e30314c4 	movw	r1, #13508	; 0x34c4
     858:	e3401000 	movt	r1, #0
     85c:	e3a00001 	mov	r0, #1
     860:	ebfffec1 	bl	36c <Console>
     864:	e30304dc 	movw	r0, #13532	; 0x34dc
     868:	e3400000 	movt	r0, #0
     86c:	fa0002b4 	blx	1344 <iprintf>
     870:	e59d3048 	ldr	r3, [sp, #72]	; 0x48
     874:	e2833001 	add	r3, r3, #1
     878:	e58d3048 	str	r3, [sp, #72]	; 0x48
     87c:	e59d3048 	ldr	r3, [sp, #72]	; 0x48
     880:	e3530004 	cmp	r3, #4
     884:	daffffda 	ble	7f4 <main+0x230>
     888:	e30304f4 	movw	r0, #13556	; 0x34f4
     88c:	e3400000 	movt	r0, #0
     890:	fa0002ab 	blx	1344 <iprintf>
     894:	e3030500 	movw	r0, #13568	; 0x3500
     898:	e3400000 	movt	r0, #0
     89c:	fa0002a8 	blx	1344 <iprintf>
     8a0:	eafffffe 	b	8a0 <main+0x2dc>

000008a4 <__errno>:
     8a4:	4b01      	ldr	r3, [pc, #4]	; (8ac <__errno+0x8>)
     8a6:	6818      	ldr	r0, [r3, #0]
     8a8:	4770      	bx	lr
     8aa:	bf00      	nop
     8ac:	00003168 	andeq	r3, r0, r8, ror #2

000008b0 <exit>:
     8b0:	b508      	push	{r3, lr}
     8b2:	4604      	mov	r4, r0
     8b4:	4b06      	ldr	r3, [pc, #24]	; (8d0 <exit+0x20>)
     8b6:	b113      	cbz	r3, 8be <exit+0xe>
     8b8:	2100      	movs	r1, #0
     8ba:	f3af 8000 	nop.w
     8be:	4b05      	ldr	r3, [pc, #20]	; (8d4 <exit+0x24>)
     8c0:	6818      	ldr	r0, [r3, #0]
     8c2:	6a83      	ldr	r3, [r0, #40]	; 0x28
     8c4:	b103      	cbz	r3, 8c8 <exit+0x18>
     8c6:	4798      	blx	r3
     8c8:	4620      	mov	r0, r4
     8ca:	f002 fbf9 	bl	30c0 <_exit>
     8ce:	bf00      	nop
     8d0:	00000000 	andeq	r0, r0, r0
     8d4:	000035a4 	andeq	r3, r0, r4, lsr #11

000008d8 <fileno>:
     8d8:	b570      	push	{r4, r5, r6, lr}
     8da:	4604      	mov	r4, r0
     8dc:	4e10      	ldr	r6, [pc, #64]	; (920 <fileno+0x48>)
     8de:	6835      	ldr	r5, [r6, #0]
     8e0:	b125      	cbz	r5, 8ec <fileno+0x14>
     8e2:	69ab      	ldr	r3, [r5, #24]
     8e4:	b913      	cbnz	r3, 8ec <fileno+0x14>
     8e6:	4628      	mov	r0, r5
     8e8:	f000 f86c 	bl	9c4 <__sinit>
     8ec:	4b0d      	ldr	r3, [pc, #52]	; (924 <fileno+0x4c>)
     8ee:	429c      	cmp	r4, r3
     8f0:	d106      	bne.n	900 <fileno+0x28>
     8f2:	686c      	ldr	r4, [r5, #4]
     8f4:	f9b4 300c 	ldrsh.w	r3, [r4, #12]
     8f8:	b163      	cbz	r3, 914 <fileno+0x3c>
     8fa:	f9b4 000e 	ldrsh.w	r0, [r4, #14]
     8fe:	bd70      	pop	{r4, r5, r6, pc}
     900:	4b09      	ldr	r3, [pc, #36]	; (928 <fileno+0x50>)
     902:	429c      	cmp	r4, r3
     904:	d101      	bne.n	90a <fileno+0x32>
     906:	68ac      	ldr	r4, [r5, #8]
     908:	e7f4      	b.n	8f4 <fileno+0x1c>
     90a:	4b08      	ldr	r3, [pc, #32]	; (92c <fileno+0x54>)
     90c:	429c      	cmp	r4, r3
     90e:	bf08      	it	eq
     910:	68ec      	ldreq	r4, [r5, #12]
     912:	e7ef      	b.n	8f4 <fileno+0x1c>
     914:	6833      	ldr	r3, [r6, #0]
     916:	2209      	movs	r2, #9
     918:	f04f 30ff 	mov.w	r0, #4294967295
     91c:	601a      	str	r2, [r3, #0]
     91e:	e7ee      	b.n	8fe <fileno+0x26>
     920:	00003168 	andeq	r3, r0, r8, ror #2
     924:	00003564 	andeq	r3, r0, r4, ror #10
     928:	00003584 	andeq	r3, r0, r4, lsl #11
     92c:	00003544 	andeq	r3, r0, r4, asr #10

00000930 <__fp_lock>:
     930:	2000      	movs	r0, #0
     932:	4770      	bx	lr

00000934 <std>:
     934:	2300      	movs	r3, #0
     936:	b510      	push	{r4, lr}
     938:	4604      	mov	r4, r0
     93a:	e9c0 3300 	strd	r3, r3, [r0]
     93e:	6083      	str	r3, [r0, #8]
     940:	8181      	strh	r1, [r0, #12]
     942:	4619      	mov	r1, r3
     944:	6643      	str	r3, [r0, #100]	; 0x64
     946:	81c2      	strh	r2, [r0, #14]
     948:	2208      	movs	r2, #8
     94a:	e9c0 3304 	strd	r3, r3, [r0, #16]
     94e:	305c      	adds	r0, #92	; 0x5c
     950:	f840 3c44 	str.w	r3, [r0, #-68]
     954:	f000 f948 	bl	be8 <memset>
     958:	4b04      	ldr	r3, [pc, #16]	; (96c <std+0x38>)
     95a:	6224      	str	r4, [r4, #32]
     95c:	6263      	str	r3, [r4, #36]	; 0x24
     95e:	4b04      	ldr	r3, [pc, #16]	; (970 <std+0x3c>)
     960:	62a3      	str	r3, [r4, #40]	; 0x28
     962:	4b04      	ldr	r3, [pc, #16]	; (974 <std+0x40>)
     964:	62e3      	str	r3, [r4, #44]	; 0x2c
     966:	4b04      	ldr	r3, [pc, #16]	; (978 <std+0x44>)
     968:	6323      	str	r3, [r4, #48]	; 0x30
     96a:	bd10      	pop	{r4, pc}
     96c:	000014b5 			; <UNDEFINED> instruction: 0x000014b5
     970:	000014db 	ldrdeq	r1, [r0], -fp
     974:	00001513 	andeq	r1, r0, r3, lsl r5
     978:	00001537 	andeq	r1, r0, r7, lsr r5

0000097c <_cleanup_r>:
     97c:	4901      	ldr	r1, [pc, #4]	; (984 <_cleanup_r+0x8>)
     97e:	f000 b8e1 	b.w	b44 <_fwalk_reent>
     982:	bf00      	nop
     984:	00001825 	andeq	r1, r0, r5, lsr #16

00000988 <__fp_unlock>:
     988:	2000      	movs	r0, #0
     98a:	4770      	bx	lr

0000098c <__sfmoreglue>:
     98c:	1e4a      	subs	r2, r1, #1
     98e:	b570      	push	{r4, r5, r6, lr}
     990:	2568      	movs	r5, #104	; 0x68
     992:	4355      	muls	r5, r2
     994:	460e      	mov	r6, r1
     996:	f105 0174 	add.w	r1, r5, #116	; 0x74
     99a:	f000 f979 	bl	c90 <_malloc_r>
     99e:	4604      	mov	r4, r0
     9a0:	b140      	cbz	r0, 9b4 <__sfmoreglue+0x28>
     9a2:	2100      	movs	r1, #0
     9a4:	f105 0268 	add.w	r2, r5, #104	; 0x68
     9a8:	e9c0 1600 	strd	r1, r6, [r0]
     9ac:	300c      	adds	r0, #12
     9ae:	60a0      	str	r0, [r4, #8]
     9b0:	f000 f91a 	bl	be8 <memset>
     9b4:	4620      	mov	r0, r4
     9b6:	bd70      	pop	{r4, r5, r6, pc}

000009b8 <_cleanup>:
     9b8:	4b01      	ldr	r3, [pc, #4]	; (9c0 <_cleanup+0x8>)
     9ba:	6818      	ldr	r0, [r3, #0]
     9bc:	f7ff bfde 	b.w	97c <_cleanup_r>
     9c0:	000035a4 	andeq	r3, r0, r4, lsr #11

000009c4 <__sinit>:
     9c4:	6983      	ldr	r3, [r0, #24]
     9c6:	b510      	push	{r4, lr}
     9c8:	4604      	mov	r4, r0
     9ca:	bb33      	cbnz	r3, a1a <__sinit+0x56>
     9cc:	e9c0 3312 	strd	r3, r3, [r0, #72]	; 0x48
     9d0:	6503      	str	r3, [r0, #80]	; 0x50
     9d2:	4b12      	ldr	r3, [pc, #72]	; (a1c <__sinit+0x58>)
     9d4:	4a12      	ldr	r2, [pc, #72]	; (a20 <__sinit+0x5c>)
     9d6:	681b      	ldr	r3, [r3, #0]
     9d8:	6282      	str	r2, [r0, #40]	; 0x28
     9da:	4298      	cmp	r0, r3
     9dc:	bf04      	itt	eq
     9de:	2301      	moveq	r3, #1
     9e0:	6183      	streq	r3, [r0, #24]
     9e2:	f000 f81f 	bl	a24 <__sfp>
     9e6:	6060      	str	r0, [r4, #4]
     9e8:	4620      	mov	r0, r4
     9ea:	f000 f81b 	bl	a24 <__sfp>
     9ee:	60a0      	str	r0, [r4, #8]
     9f0:	4620      	mov	r0, r4
     9f2:	f000 f817 	bl	a24 <__sfp>
     9f6:	2200      	movs	r2, #0
     9f8:	2104      	movs	r1, #4
     9fa:	60e0      	str	r0, [r4, #12]
     9fc:	6860      	ldr	r0, [r4, #4]
     9fe:	f7ff ff99 	bl	934 <std>
     a02:	2201      	movs	r2, #1
     a04:	2109      	movs	r1, #9
     a06:	68a0      	ldr	r0, [r4, #8]
     a08:	f7ff ff94 	bl	934 <std>
     a0c:	2202      	movs	r2, #2
     a0e:	2112      	movs	r1, #18
     a10:	68e0      	ldr	r0, [r4, #12]
     a12:	f7ff ff8f 	bl	934 <std>
     a16:	2301      	movs	r3, #1
     a18:	61a3      	str	r3, [r4, #24]
     a1a:	bd10      	pop	{r4, pc}
     a1c:	000035a4 	andeq	r3, r0, r4, lsr #11
     a20:	0000097d 	andeq	r0, r0, sp, ror r9

00000a24 <__sfp>:
     a24:	b5f8      	push	{r3, r4, r5, r6, r7, lr}
     a26:	4607      	mov	r7, r0
     a28:	4b1a      	ldr	r3, [pc, #104]	; (a94 <__sfp+0x70>)
     a2a:	681e      	ldr	r6, [r3, #0]
     a2c:	69b3      	ldr	r3, [r6, #24]
     a2e:	b913      	cbnz	r3, a36 <__sfp+0x12>
     a30:	4630      	mov	r0, r6
     a32:	f7ff ffc7 	bl	9c4 <__sinit>
     a36:	3648      	adds	r6, #72	; 0x48
     a38:	e9d6 3401 	ldrd	r3, r4, [r6, #4]
     a3c:	3b01      	subs	r3, #1
     a3e:	d503      	bpl.n	a48 <__sfp+0x24>
     a40:	6833      	ldr	r3, [r6, #0]
     a42:	b133      	cbz	r3, a52 <__sfp+0x2e>
     a44:	6836      	ldr	r6, [r6, #0]
     a46:	e7f7      	b.n	a38 <__sfp+0x14>
     a48:	f9b4 500c 	ldrsh.w	r5, [r4, #12]
     a4c:	b16d      	cbz	r5, a6a <__sfp+0x46>
     a4e:	3468      	adds	r4, #104	; 0x68
     a50:	e7f4      	b.n	a3c <__sfp+0x18>
     a52:	2104      	movs	r1, #4
     a54:	4638      	mov	r0, r7
     a56:	f7ff ff99 	bl	98c <__sfmoreglue>
     a5a:	6030      	str	r0, [r6, #0]
     a5c:	2800      	cmp	r0, #0
     a5e:	d1f1      	bne.n	a44 <__sfp+0x20>
     a60:	4604      	mov	r4, r0
     a62:	230c      	movs	r3, #12
     a64:	603b      	str	r3, [r7, #0]
     a66:	4620      	mov	r0, r4
     a68:	bdf8      	pop	{r3, r4, r5, r6, r7, pc}
     a6a:	4b0b      	ldr	r3, [pc, #44]	; (a98 <__sfp+0x74>)
     a6c:	2208      	movs	r2, #8
     a6e:	6665      	str	r5, [r4, #100]	; 0x64
     a70:	4629      	mov	r1, r5
     a72:	e9c4 5500 	strd	r5, r5, [r4]
     a76:	f104 005c 	add.w	r0, r4, #92	; 0x5c
     a7a:	60a5      	str	r5, [r4, #8]
     a7c:	e9c4 3503 	strd	r3, r5, [r4, #12]
     a80:	e9c4 5505 	strd	r5, r5, [r4, #20]
     a84:	f000 f8b0 	bl	be8 <memset>
     a88:	e9c4 550d 	strd	r5, r5, [r4, #52]	; 0x34
     a8c:	e9c4 5512 	strd	r5, r5, [r4, #72]	; 0x48
     a90:	e7e9      	b.n	a66 <__sfp+0x42>
     a92:	bf00      	nop
     a94:	000035a4 	andeq	r3, r0, r4, lsr #11
     a98:	ffff0001 			; <UNDEFINED> instruction: 0xffff0001

00000a9c <__sfp_lock_acquire>:
     a9c:	4770      	bx	lr

00000a9e <__sfp_lock_release>:
     a9e:	4770      	bx	lr

00000aa0 <__sinit_lock_acquire>:
     aa0:	4770      	bx	lr

00000aa2 <__sinit_lock_release>:
     aa2:	4770      	bx	lr

00000aa4 <__fp_lock_all>:
     aa4:	4b02      	ldr	r3, [pc, #8]	; (ab0 <__fp_lock_all+0xc>)
     aa6:	4903      	ldr	r1, [pc, #12]	; (ab4 <__fp_lock_all+0x10>)
     aa8:	6818      	ldr	r0, [r3, #0]
     aaa:	f000 b82f 	b.w	b0c <_fwalk>
     aae:	bf00      	nop
     ab0:	00003168 	andeq	r3, r0, r8, ror #2
     ab4:	00000931 	andeq	r0, r0, r1, lsr r9

00000ab8 <__fp_unlock_all>:
     ab8:	4b02      	ldr	r3, [pc, #8]	; (ac4 <__fp_unlock_all+0xc>)
     aba:	4903      	ldr	r1, [pc, #12]	; (ac8 <__fp_unlock_all+0x10>)
     abc:	6818      	ldr	r0, [r3, #0]
     abe:	f000 b825 	b.w	b0c <_fwalk>
     ac2:	bf00      	nop
     ac4:	00003168 	andeq	r3, r0, r8, ror #2
     ac8:	00000989 	andeq	r0, r0, r9, lsl #19

00000acc <_fiprintf_r>:
     acc:	b40c      	push	{r2, r3}
     ace:	b507      	push	{r0, r1, r2, lr}
     ad0:	ab04      	add	r3, sp, #16
     ad2:	f853 2b04 	ldr.w	r2, [r3], #4
     ad6:	9301      	str	r3, [sp, #4]
     ad8:	f000 f96a 	bl	db0 <_vfiprintf_r>
     adc:	b003      	add	sp, #12
     ade:	f85d eb04 	ldr.w	lr, [sp], #4
     ae2:	b002      	add	sp, #8
     ae4:	4770      	bx	lr
	...

00000ae8 <fiprintf>:
     ae8:	b40e      	push	{r1, r2, r3}
     aea:	b503      	push	{r0, r1, lr}
     aec:	ab03      	add	r3, sp, #12
     aee:	4601      	mov	r1, r0
     af0:	4805      	ldr	r0, [pc, #20]	; (b08 <fiprintf+0x20>)
     af2:	f853 2b04 	ldr.w	r2, [r3], #4
     af6:	6800      	ldr	r0, [r0, #0]
     af8:	9301      	str	r3, [sp, #4]
     afa:	f000 f959 	bl	db0 <_vfiprintf_r>
     afe:	b002      	add	sp, #8
     b00:	f85d eb04 	ldr.w	lr, [sp], #4
     b04:	b003      	add	sp, #12
     b06:	4770      	bx	lr
     b08:	00003168 	andeq	r3, r0, r8, ror #2

00000b0c <_fwalk>:
     b0c:	e92d 41f0 	stmdb	sp!, {r4, r5, r6, r7, r8, lr}
     b10:	f100 0448 	add.w	r4, r0, #72	; 0x48
     b14:	4688      	mov	r8, r1
     b16:	2600      	movs	r6, #0
     b18:	b914      	cbnz	r4, b20 <_fwalk+0x14>
     b1a:	4630      	mov	r0, r6
     b1c:	e8bd 81f0 	ldmia.w	sp!, {r4, r5, r6, r7, r8, pc}
     b20:	e9d4 7501 	ldrd	r7, r5, [r4, #4]
     b24:	3f01      	subs	r7, #1
     b26:	d501      	bpl.n	b2c <_fwalk+0x20>
     b28:	6824      	ldr	r4, [r4, #0]
     b2a:	e7f5      	b.n	b18 <_fwalk+0xc>
     b2c:	89ab      	ldrh	r3, [r5, #12]
     b2e:	2b01      	cmp	r3, #1
     b30:	d906      	bls.n	b40 <_fwalk+0x34>
     b32:	f9b5 300e 	ldrsh.w	r3, [r5, #14]
     b36:	3301      	adds	r3, #1
     b38:	d002      	beq.n	b40 <_fwalk+0x34>
     b3a:	4628      	mov	r0, r5
     b3c:	47c0      	blx	r8
     b3e:	4306      	orrs	r6, r0
     b40:	3568      	adds	r5, #104	; 0x68
     b42:	e7ef      	b.n	b24 <_fwalk+0x18>

00000b44 <_fwalk_reent>:
     b44:	e92d 43f8 	stmdb	sp!, {r3, r4, r5, r6, r7, r8, r9, lr}
     b48:	f100 0448 	add.w	r4, r0, #72	; 0x48
     b4c:	4680      	mov	r8, r0
     b4e:	4689      	mov	r9, r1
     b50:	2600      	movs	r6, #0
     b52:	b914      	cbnz	r4, b5a <_fwalk_reent+0x16>
     b54:	4630      	mov	r0, r6
     b56:	e8bd 83f8 	ldmia.w	sp!, {r3, r4, r5, r6, r7, r8, r9, pc}
     b5a:	e9d4 7501 	ldrd	r7, r5, [r4, #4]
     b5e:	3f01      	subs	r7, #1
     b60:	d501      	bpl.n	b66 <_fwalk_reent+0x22>
     b62:	6824      	ldr	r4, [r4, #0]
     b64:	e7f5      	b.n	b52 <_fwalk_reent+0xe>
     b66:	89ab      	ldrh	r3, [r5, #12]
     b68:	2b01      	cmp	r3, #1
     b6a:	d907      	bls.n	b7c <_fwalk_reent+0x38>
     b6c:	f9b5 300e 	ldrsh.w	r3, [r5, #14]
     b70:	3301      	adds	r3, #1
     b72:	d003      	beq.n	b7c <_fwalk_reent+0x38>
     b74:	4629      	mov	r1, r5
     b76:	4640      	mov	r0, r8
     b78:	47c8      	blx	r9
     b7a:	4306      	orrs	r6, r0
     b7c:	3568      	adds	r5, #104	; 0x68
     b7e:	e7ee      	b.n	b5e <_fwalk_reent+0x1a>

00000b80 <__libc_init_array>:
     b80:	b570      	push	{r4, r5, r6, lr}
     b82:	2500      	movs	r5, #0
     b84:	4e0c      	ldr	r6, [pc, #48]	; (bb8 <__libc_init_array+0x38>)
     b86:	4c0d      	ldr	r4, [pc, #52]	; (bbc <__libc_init_array+0x3c>)
     b88:	1ba4      	subs	r4, r4, r6
     b8a:	10a4      	asrs	r4, r4, #2
     b8c:	42a5      	cmp	r5, r4
     b8e:	d109      	bne.n	ba4 <__libc_init_array+0x24>
     b90:	f002 fa98 	bl	30c4 <_init>
     b94:	4e0a      	ldr	r6, [pc, #40]	; (bc0 <__libc_init_array+0x40>)
     b96:	4c0b      	ldr	r4, [pc, #44]	; (bc4 <__libc_init_array+0x44>)
     b98:	2500      	movs	r5, #0
     b9a:	1ba4      	subs	r4, r4, r6
     b9c:	10a4      	asrs	r4, r4, #2
     b9e:	42a5      	cmp	r5, r4
     ba0:	d105      	bne.n	bae <__libc_init_array+0x2e>
     ba2:	bd70      	pop	{r4, r5, r6, pc}
     ba4:	f856 3025 	ldr.w	r3, [r6, r5, lsl #2]
     ba8:	3501      	adds	r5, #1
     baa:	4798      	blx	r3
     bac:	e7ee      	b.n	b8c <__libc_init_array+0xc>
     bae:	f856 3025 	ldr.w	r3, [r6, r5, lsl #2]
     bb2:	3501      	adds	r5, #1
     bb4:	4798      	blx	r3
     bb6:	e7f2      	b.n	b9e <__libc_init_array+0x1e>
	...

00000bc8 <malloc>:
     bc8:	4b02      	ldr	r3, [pc, #8]	; (bd4 <malloc+0xc>)
     bca:	4601      	mov	r1, r0
     bcc:	6818      	ldr	r0, [r3, #0]
     bce:	f000 b85f 	b.w	c90 <_malloc_r>
     bd2:	bf00      	nop
     bd4:	00003168 	andeq	r3, r0, r8, ror #2

00000bd8 <free>:
     bd8:	4b02      	ldr	r3, [pc, #8]	; (be4 <free+0xc>)
     bda:	4601      	mov	r1, r0
     bdc:	6818      	ldr	r0, [r3, #0]
     bde:	f000 b80b 	b.w	bf8 <_free_r>
     be2:	bf00      	nop
     be4:	00003168 	andeq	r3, r0, r8, ror #2

00000be8 <memset>:
     be8:	4402      	add	r2, r0
     bea:	4603      	mov	r3, r0
     bec:	4293      	cmp	r3, r2
     bee:	d100      	bne.n	bf2 <memset+0xa>
     bf0:	4770      	bx	lr
     bf2:	f803 1b01 	strb.w	r1, [r3], #1
     bf6:	e7f9      	b.n	bec <memset+0x4>

00000bf8 <_free_r>:
     bf8:	b538      	push	{r3, r4, r5, lr}
     bfa:	4605      	mov	r5, r0
     bfc:	2900      	cmp	r1, #0
     bfe:	d043      	beq.n	c88 <_free_r+0x90>
     c00:	f851 3c04 	ldr.w	r3, [r1, #-4]
     c04:	1f0c      	subs	r4, r1, #4
     c06:	2b00      	cmp	r3, #0
     c08:	bfb8      	it	lt
     c0a:	18e4      	addlt	r4, r4, r3
     c0c:	f001 f840 	bl	1c90 <__malloc_lock>
     c10:	4a1e      	ldr	r2, [pc, #120]	; (c8c <_free_r+0x94>)
     c12:	6813      	ldr	r3, [r2, #0]
     c14:	4610      	mov	r0, r2
     c16:	b933      	cbnz	r3, c26 <_free_r+0x2e>
     c18:	6063      	str	r3, [r4, #4]
     c1a:	6014      	str	r4, [r2, #0]
     c1c:	4628      	mov	r0, r5
     c1e:	e8bd 4038 	ldmia.w	sp!, {r3, r4, r5, lr}
     c22:	f001 b836 	b.w	1c92 <__malloc_unlock>
     c26:	42a3      	cmp	r3, r4
     c28:	d90b      	bls.n	c42 <_free_r+0x4a>
     c2a:	6821      	ldr	r1, [r4, #0]
     c2c:	1862      	adds	r2, r4, r1
     c2e:	4293      	cmp	r3, r2
     c30:	bf01      	itttt	eq
     c32:	681a      	ldreq	r2, [r3, #0]
     c34:	685b      	ldreq	r3, [r3, #4]
     c36:	1852      	addeq	r2, r2, r1
     c38:	6022      	streq	r2, [r4, #0]
     c3a:	6063      	str	r3, [r4, #4]
     c3c:	6004      	str	r4, [r0, #0]
     c3e:	e7ed      	b.n	c1c <_free_r+0x24>
     c40:	4613      	mov	r3, r2
     c42:	685a      	ldr	r2, [r3, #4]
     c44:	b10a      	cbz	r2, c4a <_free_r+0x52>
     c46:	42a2      	cmp	r2, r4
     c48:	d9fa      	bls.n	c40 <_free_r+0x48>
     c4a:	6819      	ldr	r1, [r3, #0]
     c4c:	1858      	adds	r0, r3, r1
     c4e:	42a0      	cmp	r0, r4
     c50:	d10b      	bne.n	c6a <_free_r+0x72>
     c52:	6820      	ldr	r0, [r4, #0]
     c54:	4401      	add	r1, r0
     c56:	6019      	str	r1, [r3, #0]
     c58:	1858      	adds	r0, r3, r1
     c5a:	4282      	cmp	r2, r0
     c5c:	d1de      	bne.n	c1c <_free_r+0x24>
     c5e:	6810      	ldr	r0, [r2, #0]
     c60:	6852      	ldr	r2, [r2, #4]
     c62:	4401      	add	r1, r0
     c64:	6019      	str	r1, [r3, #0]
     c66:	605a      	str	r2, [r3, #4]
     c68:	e7d8      	b.n	c1c <_free_r+0x24>
     c6a:	d902      	bls.n	c72 <_free_r+0x7a>
     c6c:	230c      	movs	r3, #12
     c6e:	602b      	str	r3, [r5, #0]
     c70:	e7d4      	b.n	c1c <_free_r+0x24>
     c72:	6820      	ldr	r0, [r4, #0]
     c74:	1821      	adds	r1, r4, r0
     c76:	428a      	cmp	r2, r1
     c78:	bf01      	itttt	eq
     c7a:	6811      	ldreq	r1, [r2, #0]
     c7c:	6852      	ldreq	r2, [r2, #4]
     c7e:	1809      	addeq	r1, r1, r0
     c80:	6021      	streq	r1, [r4, #0]
     c82:	6062      	str	r2, [r4, #4]
     c84:	605c      	str	r4, [r3, #4]
     c86:	e7c9      	b.n	c1c <_free_r+0x24>
     c88:	bd38      	pop	{r3, r4, r5, pc}
     c8a:	bf00      	nop
     c8c:	00003738 	andeq	r3, r0, r8, lsr r7

00000c90 <_malloc_r>:
     c90:	b570      	push	{r4, r5, r6, lr}
     c92:	1ccd      	adds	r5, r1, #3
     c94:	f025 0503 	bic.w	r5, r5, #3
     c98:	4606      	mov	r6, r0
     c9a:	3508      	adds	r5, #8
     c9c:	2d0c      	cmp	r5, #12
     c9e:	bf38      	it	cc
     ca0:	250c      	movcc	r5, #12
     ca2:	2d00      	cmp	r5, #0
     ca4:	db01      	blt.n	caa <_malloc_r+0x1a>
     ca6:	42a9      	cmp	r1, r5
     ca8:	d903      	bls.n	cb2 <_malloc_r+0x22>
     caa:	230c      	movs	r3, #12
     cac:	6033      	str	r3, [r6, #0]
     cae:	2000      	movs	r0, #0
     cb0:	bd70      	pop	{r4, r5, r6, pc}
     cb2:	f000 ffed 	bl	1c90 <__malloc_lock>
     cb6:	4a21      	ldr	r2, [pc, #132]	; (d3c <_malloc_r+0xac>)
     cb8:	6814      	ldr	r4, [r2, #0]
     cba:	4621      	mov	r1, r4
     cbc:	b991      	cbnz	r1, ce4 <_malloc_r+0x54>
     cbe:	4c20      	ldr	r4, [pc, #128]	; (d40 <_malloc_r+0xb0>)
     cc0:	6823      	ldr	r3, [r4, #0]
     cc2:	b91b      	cbnz	r3, ccc <_malloc_r+0x3c>
     cc4:	4630      	mov	r0, r6
     cc6:	f000 fbb9 	bl	143c <_sbrk_r>
     cca:	6020      	str	r0, [r4, #0]
     ccc:	4629      	mov	r1, r5
     cce:	4630      	mov	r0, r6
     cd0:	f000 fbb4 	bl	143c <_sbrk_r>
     cd4:	1c43      	adds	r3, r0, #1
     cd6:	d124      	bne.n	d22 <_malloc_r+0x92>
     cd8:	230c      	movs	r3, #12
     cda:	4630      	mov	r0, r6
     cdc:	6033      	str	r3, [r6, #0]
     cde:	f000 ffd8 	bl	1c92 <__malloc_unlock>
     ce2:	e7e4      	b.n	cae <_malloc_r+0x1e>
     ce4:	680b      	ldr	r3, [r1, #0]
     ce6:	1b5b      	subs	r3, r3, r5
     ce8:	d418      	bmi.n	d1c <_malloc_r+0x8c>
     cea:	2b0b      	cmp	r3, #11
     cec:	d90f      	bls.n	d0e <_malloc_r+0x7e>
     cee:	18cc      	adds	r4, r1, r3
     cf0:	600b      	str	r3, [r1, #0]
     cf2:	50cd      	str	r5, [r1, r3]
     cf4:	4630      	mov	r0, r6
     cf6:	f000 ffcc 	bl	1c92 <__malloc_unlock>
     cfa:	f104 000b 	add.w	r0, r4, #11
     cfe:	1d23      	adds	r3, r4, #4
     d00:	f020 0007 	bic.w	r0, r0, #7
     d04:	1ac3      	subs	r3, r0, r3
     d06:	d0d3      	beq.n	cb0 <_malloc_r+0x20>
     d08:	425a      	negs	r2, r3
     d0a:	50e2      	str	r2, [r4, r3]
     d0c:	e7d0      	b.n	cb0 <_malloc_r+0x20>
     d0e:	684b      	ldr	r3, [r1, #4]
     d10:	428c      	cmp	r4, r1
     d12:	bf1a      	itte	ne
     d14:	6063      	strne	r3, [r4, #4]
     d16:	460c      	movne	r4, r1
     d18:	6013      	streq	r3, [r2, #0]
     d1a:	e7eb      	b.n	cf4 <_malloc_r+0x64>
     d1c:	460c      	mov	r4, r1
     d1e:	6849      	ldr	r1, [r1, #4]
     d20:	e7cc      	b.n	cbc <_malloc_r+0x2c>
     d22:	1cc4      	adds	r4, r0, #3
     d24:	f024 0403 	bic.w	r4, r4, #3
     d28:	42a0      	cmp	r0, r4
     d2a:	d005      	beq.n	d38 <_malloc_r+0xa8>
     d2c:	1a21      	subs	r1, r4, r0
     d2e:	4630      	mov	r0, r6
     d30:	f000 fb84 	bl	143c <_sbrk_r>
     d34:	3001      	adds	r0, #1
     d36:	d0cf      	beq.n	cd8 <_malloc_r+0x48>
     d38:	6025      	str	r5, [r4, #0]
     d3a:	e7db      	b.n	cf4 <_malloc_r+0x64>
     d3c:	00003738 	andeq	r3, r0, r8, lsr r7
     d40:	0000373c 	andeq	r3, r0, ip, lsr r7

00000d44 <__sfputc_r>:
     d44:	6893      	ldr	r3, [r2, #8]
     d46:	b410      	push	{r4}
     d48:	3b01      	subs	r3, #1
     d4a:	2b00      	cmp	r3, #0
     d4c:	6093      	str	r3, [r2, #8]
     d4e:	da08      	bge.n	d62 <__sfputc_r+0x1e>
     d50:	6994      	ldr	r4, [r2, #24]
     d52:	42a3      	cmp	r3, r4
     d54:	db01      	blt.n	d5a <__sfputc_r+0x16>
     d56:	290a      	cmp	r1, #10
     d58:	d103      	bne.n	d62 <__sfputc_r+0x1e>
     d5a:	f85d 4b04 	ldr.w	r4, [sp], #4
     d5e:	f000 bbf1 	b.w	1544 <__swbuf_r>
     d62:	6813      	ldr	r3, [r2, #0]
     d64:	1c58      	adds	r0, r3, #1
     d66:	6010      	str	r0, [r2, #0]
     d68:	7019      	strb	r1, [r3, #0]
     d6a:	4608      	mov	r0, r1
     d6c:	f85d 4b04 	ldr.w	r4, [sp], #4
     d70:	4770      	bx	lr

00000d72 <__sfputs_r>:
     d72:	b5f8      	push	{r3, r4, r5, r6, r7, lr}
     d74:	18d5      	adds	r5, r2, r3
     d76:	4606      	mov	r6, r0
     d78:	460f      	mov	r7, r1
     d7a:	4614      	mov	r4, r2
     d7c:	42ac      	cmp	r4, r5
     d7e:	d101      	bne.n	d84 <__sfputs_r+0x12>
     d80:	2000      	movs	r0, #0
     d82:	e007      	b.n	d94 <__sfputs_r+0x22>
     d84:	463a      	mov	r2, r7
     d86:	f814 1b01 	ldrb.w	r1, [r4], #1
     d8a:	4630      	mov	r0, r6
     d8c:	f7ff ffda 	bl	d44 <__sfputc_r>
     d90:	1c43      	adds	r3, r0, #1
     d92:	d1f3      	bne.n	d7c <__sfputs_r+0xa>
     d94:	bdf8      	pop	{r3, r4, r5, r6, r7, pc}

00000d96 <__sprint_r>:
     d96:	b538      	push	{r3, r4, r5, lr}
     d98:	4614      	mov	r4, r2
     d9a:	6893      	ldr	r3, [r2, #8]
     d9c:	2500      	movs	r5, #0
     d9e:	b913      	cbnz	r3, da6 <__sprint_r+0x10>
     da0:	4618      	mov	r0, r3
     da2:	6053      	str	r3, [r2, #4]
     da4:	bd38      	pop	{r3, r4, r5, pc}
     da6:	f000 fd79 	bl	189c <__sfvwrite_r>
     daa:	e9c4 5501 	strd	r5, r5, [r4, #4]
     dae:	e7f9      	b.n	da4 <__sprint_r+0xe>

00000db0 <_vfiprintf_r>:
     db0:	e92d 4ff0 	stmdb	sp!, {r4, r5, r6, r7, r8, r9, sl, fp, lr}
     db4:	460c      	mov	r4, r1
     db6:	b09d      	sub	sp, #116	; 0x74
     db8:	4617      	mov	r7, r2
     dba:	461d      	mov	r5, r3
     dbc:	4606      	mov	r6, r0
     dbe:	b118      	cbz	r0, dc8 <_vfiprintf_r+0x18>
     dc0:	6983      	ldr	r3, [r0, #24]
     dc2:	b90b      	cbnz	r3, dc8 <_vfiprintf_r+0x18>
     dc4:	f7ff fdfe 	bl	9c4 <__sinit>
     dc8:	4b7c      	ldr	r3, [pc, #496]	; (fbc <_vfiprintf_r+0x20c>)
     dca:	429c      	cmp	r4, r3
     dcc:	d158      	bne.n	e80 <_vfiprintf_r+0xd0>
     dce:	6874      	ldr	r4, [r6, #4]
     dd0:	89a3      	ldrh	r3, [r4, #12]
     dd2:	0718      	lsls	r0, r3, #28
     dd4:	d55e      	bpl.n	e94 <_vfiprintf_r+0xe4>
     dd6:	6923      	ldr	r3, [r4, #16]
     dd8:	2b00      	cmp	r3, #0
     dda:	d05b      	beq.n	e94 <_vfiprintf_r+0xe4>
     ddc:	f04f 0b01 	mov.w	fp, #1
     de0:	2300      	movs	r3, #0
     de2:	9503      	str	r5, [sp, #12]
     de4:	9309      	str	r3, [sp, #36]	; 0x24
     de6:	2320      	movs	r3, #32
     de8:	f88d 3029 	strb.w	r3, [sp, #41]	; 0x29
     dec:	2330      	movs	r3, #48	; 0x30
     dee:	f88d 302a 	strb.w	r3, [sp, #42]	; 0x2a
     df2:	46b8      	mov	r8, r7
     df4:	4645      	mov	r5, r8
     df6:	f815 3b01 	ldrb.w	r3, [r5], #1
     dfa:	b10b      	cbz	r3, e00 <_vfiprintf_r+0x50>
     dfc:	2b25      	cmp	r3, #37	; 0x25
     dfe:	d154      	bne.n	eaa <_vfiprintf_r+0xfa>
     e00:	ebb8 0a07 	subs.w	sl, r8, r7
     e04:	d00b      	beq.n	e1e <_vfiprintf_r+0x6e>
     e06:	4653      	mov	r3, sl
     e08:	463a      	mov	r2, r7
     e0a:	4621      	mov	r1, r4
     e0c:	4630      	mov	r0, r6
     e0e:	f7ff ffb0 	bl	d72 <__sfputs_r>
     e12:	3001      	adds	r0, #1
     e14:	f000 80c2 	beq.w	f9c <_vfiprintf_r+0x1ec>
     e18:	9b09      	ldr	r3, [sp, #36]	; 0x24
     e1a:	4453      	add	r3, sl
     e1c:	9309      	str	r3, [sp, #36]	; 0x24
     e1e:	f898 3000 	ldrb.w	r3, [r8]
     e22:	2b00      	cmp	r3, #0
     e24:	f000 80ba 	beq.w	f9c <_vfiprintf_r+0x1ec>
     e28:	2300      	movs	r3, #0
     e2a:	f04f 32ff 	mov.w	r2, #4294967295
     e2e:	9304      	str	r3, [sp, #16]
     e30:	9307      	str	r3, [sp, #28]
     e32:	e9cd 2305 	strd	r2, r3, [sp, #20]
     e36:	f88d 3053 	strb.w	r3, [sp, #83]	; 0x53
     e3a:	931a      	str	r3, [sp, #104]	; 0x68
     e3c:	46a8      	mov	r8, r5
     e3e:	2205      	movs	r2, #5
     e40:	f818 1b01 	ldrb.w	r1, [r8], #1
     e44:	485e      	ldr	r0, [pc, #376]	; (fc0 <_vfiprintf_r+0x210>)
     e46:	f000 fef1 	bl	1c2c <memchr>
     e4a:	9b04      	ldr	r3, [sp, #16]
     e4c:	bb78      	cbnz	r0, eae <_vfiprintf_r+0xfe>
     e4e:	06d9      	lsls	r1, r3, #27
     e50:	bf44      	itt	mi
     e52:	2220      	movmi	r2, #32
     e54:	f88d 2053 	strbmi.w	r2, [sp, #83]	; 0x53
     e58:	071a      	lsls	r2, r3, #28
     e5a:	bf44      	itt	mi
     e5c:	222b      	movmi	r2, #43	; 0x2b
     e5e:	f88d 2053 	strbmi.w	r2, [sp, #83]	; 0x53
     e62:	782a      	ldrb	r2, [r5, #0]
     e64:	2a2a      	cmp	r2, #42	; 0x2a
     e66:	d02a      	beq.n	ebe <_vfiprintf_r+0x10e>
     e68:	9a07      	ldr	r2, [sp, #28]
     e6a:	46a8      	mov	r8, r5
     e6c:	2000      	movs	r0, #0
     e6e:	250a      	movs	r5, #10
     e70:	4641      	mov	r1, r8
     e72:	f811 3b01 	ldrb.w	r3, [r1], #1
     e76:	3b30      	subs	r3, #48	; 0x30
     e78:	2b09      	cmp	r3, #9
     e7a:	d969      	bls.n	f50 <_vfiprintf_r+0x1a0>
     e7c:	b360      	cbz	r0, ed8 <_vfiprintf_r+0x128>
     e7e:	e024      	b.n	eca <_vfiprintf_r+0x11a>
     e80:	4b50      	ldr	r3, [pc, #320]	; (fc4 <_vfiprintf_r+0x214>)
     e82:	429c      	cmp	r4, r3
     e84:	d101      	bne.n	e8a <_vfiprintf_r+0xda>
     e86:	68b4      	ldr	r4, [r6, #8]
     e88:	e7a2      	b.n	dd0 <_vfiprintf_r+0x20>
     e8a:	4b4f      	ldr	r3, [pc, #316]	; (fc8 <_vfiprintf_r+0x218>)
     e8c:	429c      	cmp	r4, r3
     e8e:	bf08      	it	eq
     e90:	68f4      	ldreq	r4, [r6, #12]
     e92:	e79d      	b.n	dd0 <_vfiprintf_r+0x20>
     e94:	4621      	mov	r1, r4
     e96:	4630      	mov	r0, r6
     e98:	f000 fbc0 	bl	161c <__swsetup_r>
     e9c:	2800      	cmp	r0, #0
     e9e:	d09d      	beq.n	ddc <_vfiprintf_r+0x2c>
     ea0:	f04f 30ff 	mov.w	r0, #4294967295
     ea4:	b01d      	add	sp, #116	; 0x74
     ea6:	e8bd 8ff0 	ldmia.w	sp!, {r4, r5, r6, r7, r8, r9, sl, fp, pc}
     eaa:	46a8      	mov	r8, r5
     eac:	e7a2      	b.n	df4 <_vfiprintf_r+0x44>
     eae:	4a44      	ldr	r2, [pc, #272]	; (fc0 <_vfiprintf_r+0x210>)
     eb0:	4645      	mov	r5, r8
     eb2:	1a80      	subs	r0, r0, r2
     eb4:	fa0b f000 	lsl.w	r0, fp, r0
     eb8:	4318      	orrs	r0, r3
     eba:	9004      	str	r0, [sp, #16]
     ebc:	e7be      	b.n	e3c <_vfiprintf_r+0x8c>
     ebe:	9a03      	ldr	r2, [sp, #12]
     ec0:	1d11      	adds	r1, r2, #4
     ec2:	9103      	str	r1, [sp, #12]
     ec4:	6812      	ldr	r2, [r2, #0]
     ec6:	2a00      	cmp	r2, #0
     ec8:	db01      	blt.n	ece <_vfiprintf_r+0x11e>
     eca:	9207      	str	r2, [sp, #28]
     ecc:	e004      	b.n	ed8 <_vfiprintf_r+0x128>
     ece:	4252      	negs	r2, r2
     ed0:	f043 0302 	orr.w	r3, r3, #2
     ed4:	9207      	str	r2, [sp, #28]
     ed6:	9304      	str	r3, [sp, #16]
     ed8:	f898 3000 	ldrb.w	r3, [r8]
     edc:	2b2e      	cmp	r3, #46	; 0x2e
     ede:	d10e      	bne.n	efe <_vfiprintf_r+0x14e>
     ee0:	f898 3001 	ldrb.w	r3, [r8, #1]
     ee4:	2b2a      	cmp	r3, #42	; 0x2a
     ee6:	d138      	bne.n	f5a <_vfiprintf_r+0x1aa>
     ee8:	9b03      	ldr	r3, [sp, #12]
     eea:	f108 0802 	add.w	r8, r8, #2
     eee:	1d1a      	adds	r2, r3, #4
     ef0:	9203      	str	r2, [sp, #12]
     ef2:	681b      	ldr	r3, [r3, #0]
     ef4:	2b00      	cmp	r3, #0
     ef6:	bfb8      	it	lt
     ef8:	f04f 33ff 	movlt.w	r3, #4294967295
     efc:	9305      	str	r3, [sp, #20]
     efe:	4d33      	ldr	r5, [pc, #204]	; (fcc <_vfiprintf_r+0x21c>)
     f00:	2203      	movs	r2, #3
     f02:	f898 1000 	ldrb.w	r1, [r8]
     f06:	4628      	mov	r0, r5
     f08:	f000 fe90 	bl	1c2c <memchr>
     f0c:	b140      	cbz	r0, f20 <_vfiprintf_r+0x170>
     f0e:	2340      	movs	r3, #64	; 0x40
     f10:	1b40      	subs	r0, r0, r5
     f12:	fa03 f000 	lsl.w	r0, r3, r0
     f16:	f108 0801 	add.w	r8, r8, #1
     f1a:	9b04      	ldr	r3, [sp, #16]
     f1c:	4303      	orrs	r3, r0
     f1e:	9304      	str	r3, [sp, #16]
     f20:	f898 1000 	ldrb.w	r1, [r8]
     f24:	2206      	movs	r2, #6
     f26:	482a      	ldr	r0, [pc, #168]	; (fd0 <_vfiprintf_r+0x220>)
     f28:	f108 0701 	add.w	r7, r8, #1
     f2c:	f88d 1028 	strb.w	r1, [sp, #40]	; 0x28
     f30:	f000 fe7c 	bl	1c2c <memchr>
     f34:	2800      	cmp	r0, #0
     f36:	d037      	beq.n	fa8 <_vfiprintf_r+0x1f8>
     f38:	4b26      	ldr	r3, [pc, #152]	; (fd4 <_vfiprintf_r+0x224>)
     f3a:	bb1b      	cbnz	r3, f84 <_vfiprintf_r+0x1d4>
     f3c:	9b03      	ldr	r3, [sp, #12]
     f3e:	3307      	adds	r3, #7
     f40:	f023 0307 	bic.w	r3, r3, #7
     f44:	3308      	adds	r3, #8
     f46:	9303      	str	r3, [sp, #12]
     f48:	9b09      	ldr	r3, [sp, #36]	; 0x24
     f4a:	444b      	add	r3, r9
     f4c:	9309      	str	r3, [sp, #36]	; 0x24
     f4e:	e750      	b.n	df2 <_vfiprintf_r+0x42>
     f50:	fb05 3202 	mla	r2, r5, r2, r3
     f54:	2001      	movs	r0, #1
     f56:	4688      	mov	r8, r1
     f58:	e78a      	b.n	e70 <_vfiprintf_r+0xc0>
     f5a:	2300      	movs	r3, #0
     f5c:	f108 0801 	add.w	r8, r8, #1
     f60:	4619      	mov	r1, r3
     f62:	250a      	movs	r5, #10
     f64:	9305      	str	r3, [sp, #20]
     f66:	4640      	mov	r0, r8
     f68:	f810 2b01 	ldrb.w	r2, [r0], #1
     f6c:	3a30      	subs	r2, #48	; 0x30
     f6e:	2a09      	cmp	r2, #9
     f70:	d903      	bls.n	f7a <_vfiprintf_r+0x1ca>
     f72:	2b00      	cmp	r3, #0
     f74:	d0c3      	beq.n	efe <_vfiprintf_r+0x14e>
     f76:	9105      	str	r1, [sp, #20]
     f78:	e7c1      	b.n	efe <_vfiprintf_r+0x14e>
     f7a:	fb05 2101 	mla	r1, r5, r1, r2
     f7e:	2301      	movs	r3, #1
     f80:	4680      	mov	r8, r0
     f82:	e7f0      	b.n	f66 <_vfiprintf_r+0x1b6>
     f84:	ab03      	add	r3, sp, #12
     f86:	4622      	mov	r2, r4
     f88:	9300      	str	r3, [sp, #0]
     f8a:	a904      	add	r1, sp, #16
     f8c:	4b12      	ldr	r3, [pc, #72]	; (fd8 <_vfiprintf_r+0x228>)
     f8e:	4630      	mov	r0, r6
     f90:	f3af 8000 	nop.w
     f94:	f1b0 3fff 	cmp.w	r0, #4294967295
     f98:	4681      	mov	r9, r0
     f9a:	d1d5      	bne.n	f48 <_vfiprintf_r+0x198>
     f9c:	89a3      	ldrh	r3, [r4, #12]
     f9e:	065b      	lsls	r3, r3, #25
     fa0:	f53f af7e 	bmi.w	ea0 <_vfiprintf_r+0xf0>
     fa4:	9809      	ldr	r0, [sp, #36]	; 0x24
     fa6:	e77d      	b.n	ea4 <_vfiprintf_r+0xf4>
     fa8:	ab03      	add	r3, sp, #12
     faa:	4622      	mov	r2, r4
     fac:	9300      	str	r3, [sp, #0]
     fae:	a904      	add	r1, sp, #16
     fb0:	4b09      	ldr	r3, [pc, #36]	; (fd8 <_vfiprintf_r+0x228>)
     fb2:	4630      	mov	r0, r6
     fb4:	f000 f896 	bl	10e4 <_printf_i>
     fb8:	e7ec      	b.n	f94 <_vfiprintf_r+0x1e4>
     fba:	bf00      	nop
     fbc:	00003564 	andeq	r3, r0, r4, ror #10
     fc0:	000035a8 	andeq	r3, r0, r8, lsr #11
     fc4:	00003584 	andeq	r3, r0, r4, lsl #11
     fc8:	00003544 	andeq	r3, r0, r4, asr #10
     fcc:	000035ae 	andeq	r3, r0, lr, lsr #11
     fd0:	000035b2 			; <UNDEFINED> instruction: 0x000035b2
     fd4:	00000000 	andeq	r0, r0, r0
     fd8:	00000d73 	andeq	r0, r0, r3, ror sp

00000fdc <vfiprintf>:
     fdc:	4613      	mov	r3, r2
     fde:	460a      	mov	r2, r1
     fe0:	4601      	mov	r1, r0
     fe2:	4802      	ldr	r0, [pc, #8]	; (fec <vfiprintf+0x10>)
     fe4:	6800      	ldr	r0, [r0, #0]
     fe6:	f7ff bee3 	b.w	db0 <_vfiprintf_r>
     fea:	bf00      	nop
     fec:	00003168 	andeq	r3, r0, r8, ror #2

00000ff0 <_printf_common>:
     ff0:	e92d 47f0 	stmdb	sp!, {r4, r5, r6, r7, r8, r9, sl, lr}
     ff4:	4691      	mov	r9, r2
     ff6:	461f      	mov	r7, r3
     ff8:	688a      	ldr	r2, [r1, #8]
     ffa:	690b      	ldr	r3, [r1, #16]
     ffc:	4606      	mov	r6, r0
     ffe:	460c      	mov	r4, r1
    1000:	f8dd 8020 	ldr.w	r8, [sp, #32]
    1004:	4293      	cmp	r3, r2
    1006:	bfb8      	it	lt
    1008:	4613      	movlt	r3, r2
    100a:	f8c9 3000 	str.w	r3, [r9]
    100e:	f891 2043 	ldrb.w	r2, [r1, #67]	; 0x43
    1012:	b112      	cbz	r2, 101a <__STACK_SIZE+0x1a>
    1014:	3301      	adds	r3, #1
    1016:	f8c9 3000 	str.w	r3, [r9]
    101a:	6823      	ldr	r3, [r4, #0]
    101c:	0699      	lsls	r1, r3, #26
    101e:	bf42      	ittt	mi
    1020:	f8d9 3000 	ldrmi.w	r3, [r9]
    1024:	3302      	addmi	r3, #2
    1026:	f8c9 3000 	strmi.w	r3, [r9]
    102a:	6825      	ldr	r5, [r4, #0]
    102c:	f015 0506 	ands.w	r5, r5, #6
    1030:	d107      	bne.n	1042 <__STACK_SIZE+0x42>
    1032:	f104 0a19 	add.w	sl, r4, #25
    1036:	68e3      	ldr	r3, [r4, #12]
    1038:	f8d9 2000 	ldr.w	r2, [r9]
    103c:	1a9b      	subs	r3, r3, r2
    103e:	42ab      	cmp	r3, r5
    1040:	dc2c      	bgt.n	109c <__STACK_SIZE+0x9c>
    1042:	f894 3043 	ldrb.w	r3, [r4, #67]	; 0x43
    1046:	6822      	ldr	r2, [r4, #0]
    1048:	3300      	adds	r3, #0
    104a:	bf18      	it	ne
    104c:	2301      	movne	r3, #1
    104e:	0692      	lsls	r2, r2, #26
    1050:	d431      	bmi.n	10b6 <__STACK_SIZE+0xb6>
    1052:	f104 0243 	add.w	r2, r4, #67	; 0x43
    1056:	4639      	mov	r1, r7
    1058:	4630      	mov	r0, r6
    105a:	47c0      	blx	r8
    105c:	3001      	adds	r0, #1
    105e:	d024      	beq.n	10aa <__STACK_SIZE+0xaa>
    1060:	6823      	ldr	r3, [r4, #0]
    1062:	341a      	adds	r4, #26
    1064:	f854 5c0e 	ldr.w	r5, [r4, #-14]
    1068:	f8d9 2000 	ldr.w	r2, [r9]
    106c:	f003 0306 	and.w	r3, r3, #6
    1070:	2b04      	cmp	r3, #4
    1072:	f854 3c12 	ldr.w	r3, [r4, #-18]
    1076:	bf08      	it	eq
    1078:	1aad      	subeq	r5, r5, r2
    107a:	f854 2c0a 	ldr.w	r2, [r4, #-10]
    107e:	bf18      	it	ne
    1080:	2500      	movne	r5, #0
    1082:	f04f 0900 	mov.w	r9, #0
    1086:	bf08      	it	eq
    1088:	ea25 75e5 	biceq.w	r5, r5, r5, asr #31
    108c:	4293      	cmp	r3, r2
    108e:	bfc4      	itt	gt
    1090:	1a9b      	subgt	r3, r3, r2
    1092:	18ed      	addgt	r5, r5, r3
    1094:	454d      	cmp	r5, r9
    1096:	d11a      	bne.n	10ce <__STACK_SIZE+0xce>
    1098:	2000      	movs	r0, #0
    109a:	e008      	b.n	10ae <__STACK_SIZE+0xae>
    109c:	2301      	movs	r3, #1
    109e:	4652      	mov	r2, sl
    10a0:	4639      	mov	r1, r7
    10a2:	4630      	mov	r0, r6
    10a4:	47c0      	blx	r8
    10a6:	3001      	adds	r0, #1
    10a8:	d103      	bne.n	10b2 <__STACK_SIZE+0xb2>
    10aa:	f04f 30ff 	mov.w	r0, #4294967295
    10ae:	e8bd 87f0 	ldmia.w	sp!, {r4, r5, r6, r7, r8, r9, sl, pc}
    10b2:	3501      	adds	r5, #1
    10b4:	e7bf      	b.n	1036 <__STACK_SIZE+0x36>
    10b6:	18e1      	adds	r1, r4, r3
    10b8:	1c5a      	adds	r2, r3, #1
    10ba:	2030      	movs	r0, #48	; 0x30
    10bc:	4422      	add	r2, r4
    10be:	f881 0043 	strb.w	r0, [r1, #67]	; 0x43
    10c2:	3302      	adds	r3, #2
    10c4:	f894 1045 	ldrb.w	r1, [r4, #69]	; 0x45
    10c8:	f882 1043 	strb.w	r1, [r2, #67]	; 0x43
    10cc:	e7c1      	b.n	1052 <__STACK_SIZE+0x52>
    10ce:	2301      	movs	r3, #1
    10d0:	4622      	mov	r2, r4
    10d2:	4639      	mov	r1, r7
    10d4:	4630      	mov	r0, r6
    10d6:	47c0      	blx	r8
    10d8:	3001      	adds	r0, #1
    10da:	d0e6      	beq.n	10aa <__STACK_SIZE+0xaa>
    10dc:	f109 0901 	add.w	r9, r9, #1
    10e0:	e7d8      	b.n	1094 <__STACK_SIZE+0x94>
	...

000010e4 <_printf_i>:
    10e4:	e92d 4ff0 	stmdb	sp!, {r4, r5, r6, r7, r8, r9, sl, fp, lr}
    10e8:	4617      	mov	r7, r2
    10ea:	7e0a      	ldrb	r2, [r1, #24]
    10ec:	b085      	sub	sp, #20
    10ee:	4698      	mov	r8, r3
    10f0:	4606      	mov	r6, r0
    10f2:	2a6e      	cmp	r2, #110	; 0x6e
    10f4:	460c      	mov	r4, r1
    10f6:	9b0e      	ldr	r3, [sp, #56]	; 0x38
    10f8:	f101 0a43 	add.w	sl, r1, #67	; 0x43
    10fc:	f000 80bb 	beq.w	1276 <_printf_i+0x192>
    1100:	d824      	bhi.n	114c <_printf_i+0x68>
    1102:	2a63      	cmp	r2, #99	; 0x63
    1104:	d039      	beq.n	117a <_printf_i+0x96>
    1106:	d80a      	bhi.n	111e <_printf_i+0x3a>
    1108:	2a00      	cmp	r2, #0
    110a:	f000 80c1 	beq.w	1290 <_printf_i+0x1ac>
    110e:	2a58      	cmp	r2, #88	; 0x58
    1110:	f000 808a 	beq.w	1228 <_printf_i+0x144>
    1114:	f104 0542 	add.w	r5, r4, #66	; 0x42
    1118:	f884 2042 	strb.w	r2, [r4, #66]	; 0x42
    111c:	e035      	b.n	118a <_printf_i+0xa6>
    111e:	2a64      	cmp	r2, #100	; 0x64
    1120:	d001      	beq.n	1126 <_printf_i+0x42>
    1122:	2a69      	cmp	r2, #105	; 0x69
    1124:	d1f6      	bne.n	1114 <_printf_i+0x30>
    1126:	6820      	ldr	r0, [r4, #0]
    1128:	6819      	ldr	r1, [r3, #0]
    112a:	0605      	lsls	r5, r0, #24
    112c:	f101 0204 	add.w	r2, r1, #4
    1130:	d52d      	bpl.n	118e <_printf_i+0xaa>
    1132:	6808      	ldr	r0, [r1, #0]
    1134:	601a      	str	r2, [r3, #0]
    1136:	2800      	cmp	r0, #0
    1138:	da03      	bge.n	1142 <_printf_i+0x5e>
    113a:	4240      	negs	r0, r0
    113c:	232d      	movs	r3, #45	; 0x2d
    113e:	f884 3043 	strb.w	r3, [r4, #67]	; 0x43
    1142:	f8df 91d0 	ldr.w	r9, [pc, #464]	; 1314 <_printf_i+0x230>
    1146:	f04f 0b0a 	mov.w	fp, #10
    114a:	e03d      	b.n	11c8 <_printf_i+0xe4>
    114c:	2a73      	cmp	r2, #115	; 0x73
    114e:	f000 80a3 	beq.w	1298 <_printf_i+0x1b4>
    1152:	d808      	bhi.n	1166 <_printf_i+0x82>
    1154:	2a6f      	cmp	r2, #111	; 0x6f
    1156:	d021      	beq.n	119c <_printf_i+0xb8>
    1158:	2a70      	cmp	r2, #112	; 0x70
    115a:	d1db      	bne.n	1114 <_printf_i+0x30>
    115c:	680a      	ldr	r2, [r1, #0]
    115e:	f042 0220 	orr.w	r2, r2, #32
    1162:	600a      	str	r2, [r1, #0]
    1164:	e003      	b.n	116e <_printf_i+0x8a>
    1166:	2a75      	cmp	r2, #117	; 0x75
    1168:	d018      	beq.n	119c <_printf_i+0xb8>
    116a:	2a78      	cmp	r2, #120	; 0x78
    116c:	d1d2      	bne.n	1114 <_printf_i+0x30>
    116e:	2278      	movs	r2, #120	; 0x78
    1170:	f8df 91a4 	ldr.w	r9, [pc, #420]	; 1318 <_printf_i+0x234>
    1174:	f884 2045 	strb.w	r2, [r4, #69]	; 0x45
    1178:	e05a      	b.n	1230 <_printf_i+0x14c>
    117a:	681a      	ldr	r2, [r3, #0]
    117c:	f104 0542 	add.w	r5, r4, #66	; 0x42
    1180:	1d11      	adds	r1, r2, #4
    1182:	6019      	str	r1, [r3, #0]
    1184:	6813      	ldr	r3, [r2, #0]
    1186:	f884 3042 	strb.w	r3, [r4, #66]	; 0x42
    118a:	2301      	movs	r3, #1
    118c:	e091      	b.n	12b2 <_printf_i+0x1ce>
    118e:	f010 0f40 	tst.w	r0, #64	; 0x40
    1192:	6808      	ldr	r0, [r1, #0]
    1194:	601a      	str	r2, [r3, #0]
    1196:	bf18      	it	ne
    1198:	b200      	sxthne	r0, r0
    119a:	e7cc      	b.n	1136 <_printf_i+0x52>
    119c:	6819      	ldr	r1, [r3, #0]
    119e:	6825      	ldr	r5, [r4, #0]
    11a0:	1d08      	adds	r0, r1, #4
    11a2:	6018      	str	r0, [r3, #0]
    11a4:	062b      	lsls	r3, r5, #24
    11a6:	d501      	bpl.n	11ac <_printf_i+0xc8>
    11a8:	6808      	ldr	r0, [r1, #0]
    11aa:	e002      	b.n	11b2 <_printf_i+0xce>
    11ac:	0668      	lsls	r0, r5, #25
    11ae:	d5fb      	bpl.n	11a8 <_printf_i+0xc4>
    11b0:	8808      	ldrh	r0, [r1, #0]
    11b2:	2a6f      	cmp	r2, #111	; 0x6f
    11b4:	f8df 915c 	ldr.w	r9, [pc, #348]	; 1314 <_printf_i+0x230>
    11b8:	bf14      	ite	ne
    11ba:	f04f 0b0a 	movne.w	fp, #10
    11be:	f04f 0b08 	moveq.w	fp, #8
    11c2:	2300      	movs	r3, #0
    11c4:	f884 3043 	strb.w	r3, [r4, #67]	; 0x43
    11c8:	6862      	ldr	r2, [r4, #4]
    11ca:	2a00      	cmp	r2, #0
    11cc:	60a2      	str	r2, [r4, #8]
    11ce:	f2c0 8097 	blt.w	1300 <_printf_i+0x21c>
    11d2:	6823      	ldr	r3, [r4, #0]
    11d4:	f023 0304 	bic.w	r3, r3, #4
    11d8:	6023      	str	r3, [r4, #0]
    11da:	2800      	cmp	r0, #0
    11dc:	d140      	bne.n	1260 <_printf_i+0x17c>
    11de:	2a00      	cmp	r2, #0
    11e0:	f040 8090 	bne.w	1304 <_printf_i+0x220>
    11e4:	4655      	mov	r5, sl
    11e6:	f1bb 0f08 	cmp.w	fp, #8
    11ea:	d10b      	bne.n	1204 <_printf_i+0x120>
    11ec:	6823      	ldr	r3, [r4, #0]
    11ee:	07db      	lsls	r3, r3, #31
    11f0:	d508      	bpl.n	1204 <_printf_i+0x120>
    11f2:	6923      	ldr	r3, [r4, #16]
    11f4:	6862      	ldr	r2, [r4, #4]
    11f6:	429a      	cmp	r2, r3
    11f8:	bfde      	ittt	le
    11fa:	2330      	movle	r3, #48	; 0x30
    11fc:	f805 3c01 	strble.w	r3, [r5, #-1]
    1200:	f105 35ff 	addle.w	r5, r5, #4294967295
    1204:	ebaa 0305 	sub.w	r3, sl, r5
    1208:	6123      	str	r3, [r4, #16]
    120a:	f8cd 8000 	str.w	r8, [sp]
    120e:	463b      	mov	r3, r7
    1210:	aa03      	add	r2, sp, #12
    1212:	4621      	mov	r1, r4
    1214:	4630      	mov	r0, r6
    1216:	f7ff feeb 	bl	ff0 <_printf_common>
    121a:	3001      	adds	r0, #1
    121c:	d14e      	bne.n	12bc <_printf_i+0x1d8>
    121e:	f04f 30ff 	mov.w	r0, #4294967295
    1222:	b005      	add	sp, #20
    1224:	e8bd 8ff0 	ldmia.w	sp!, {r4, r5, r6, r7, r8, r9, sl, fp, pc}
    1228:	f8df 90e8 	ldr.w	r9, [pc, #232]	; 1314 <_printf_i+0x230>
    122c:	f881 2045 	strb.w	r2, [r1, #69]	; 0x45
    1230:	6818      	ldr	r0, [r3, #0]
    1232:	6822      	ldr	r2, [r4, #0]
    1234:	1d01      	adds	r1, r0, #4
    1236:	6800      	ldr	r0, [r0, #0]
    1238:	6019      	str	r1, [r3, #0]
    123a:	0613      	lsls	r3, r2, #24
    123c:	d50c      	bpl.n	1258 <_printf_i+0x174>
    123e:	07d1      	lsls	r1, r2, #31
    1240:	bf44      	itt	mi
    1242:	f042 0220 	orrmi.w	r2, r2, #32
    1246:	6022      	strmi	r2, [r4, #0]
    1248:	b918      	cbnz	r0, 1252 <_printf_i+0x16e>
    124a:	6823      	ldr	r3, [r4, #0]
    124c:	f023 0320 	bic.w	r3, r3, #32
    1250:	6023      	str	r3, [r4, #0]
    1252:	f04f 0b10 	mov.w	fp, #16
    1256:	e7b4      	b.n	11c2 <_printf_i+0xde>
    1258:	0655      	lsls	r5, r2, #25
    125a:	bf48      	it	mi
    125c:	b280      	uxthmi	r0, r0
    125e:	e7ee      	b.n	123e <_printf_i+0x15a>
    1260:	4655      	mov	r5, sl
    1262:	4659      	mov	r1, fp
    1264:	f001 fd8e 	bl	2d84 <__aeabi_uidivmod>
    1268:	f819 3001 	ldrb.w	r3, [r9, r1]
    126c:	f805 3d01 	strb.w	r3, [r5, #-1]!
    1270:	2800      	cmp	r0, #0
    1272:	d1f6      	bne.n	1262 <_printf_i+0x17e>
    1274:	e7b7      	b.n	11e6 <_printf_i+0x102>
    1276:	680d      	ldr	r5, [r1, #0]
    1278:	681a      	ldr	r2, [r3, #0]
    127a:	6949      	ldr	r1, [r1, #20]
    127c:	1d10      	adds	r0, r2, #4
    127e:	6018      	str	r0, [r3, #0]
    1280:	0628      	lsls	r0, r5, #24
    1282:	6813      	ldr	r3, [r2, #0]
    1284:	d501      	bpl.n	128a <_printf_i+0x1a6>
    1286:	6019      	str	r1, [r3, #0]
    1288:	e002      	b.n	1290 <_printf_i+0x1ac>
    128a:	066a      	lsls	r2, r5, #25
    128c:	d5fb      	bpl.n	1286 <_printf_i+0x1a2>
    128e:	8019      	strh	r1, [r3, #0]
    1290:	2300      	movs	r3, #0
    1292:	4655      	mov	r5, sl
    1294:	6123      	str	r3, [r4, #16]
    1296:	e7b8      	b.n	120a <_printf_i+0x126>
    1298:	681a      	ldr	r2, [r3, #0]
    129a:	1d11      	adds	r1, r2, #4
    129c:	6019      	str	r1, [r3, #0]
    129e:	6815      	ldr	r5, [r2, #0]
    12a0:	2100      	movs	r1, #0
    12a2:	6862      	ldr	r2, [r4, #4]
    12a4:	4628      	mov	r0, r5
    12a6:	f000 fcc1 	bl	1c2c <memchr>
    12aa:	b108      	cbz	r0, 12b0 <_printf_i+0x1cc>
    12ac:	1b40      	subs	r0, r0, r5
    12ae:	6060      	str	r0, [r4, #4]
    12b0:	6863      	ldr	r3, [r4, #4]
    12b2:	6123      	str	r3, [r4, #16]
    12b4:	2300      	movs	r3, #0
    12b6:	f884 3043 	strb.w	r3, [r4, #67]	; 0x43
    12ba:	e7a6      	b.n	120a <_printf_i+0x126>
    12bc:	6923      	ldr	r3, [r4, #16]
    12be:	462a      	mov	r2, r5
    12c0:	4639      	mov	r1, r7
    12c2:	4630      	mov	r0, r6
    12c4:	47c0      	blx	r8
    12c6:	3001      	adds	r0, #1
    12c8:	d0a9      	beq.n	121e <_printf_i+0x13a>
    12ca:	6823      	ldr	r3, [r4, #0]
    12cc:	079b      	lsls	r3, r3, #30
    12ce:	d413      	bmi.n	12f8 <_printf_i+0x214>
    12d0:	68e0      	ldr	r0, [r4, #12]
    12d2:	9b03      	ldr	r3, [sp, #12]
    12d4:	4298      	cmp	r0, r3
    12d6:	bfb8      	it	lt
    12d8:	4618      	movlt	r0, r3
    12da:	e7a2      	b.n	1222 <_printf_i+0x13e>
    12dc:	2301      	movs	r3, #1
    12de:	464a      	mov	r2, r9
    12e0:	4639      	mov	r1, r7
    12e2:	4630      	mov	r0, r6
    12e4:	47c0      	blx	r8
    12e6:	3001      	adds	r0, #1
    12e8:	d099      	beq.n	121e <_printf_i+0x13a>
    12ea:	3501      	adds	r5, #1
    12ec:	68e3      	ldr	r3, [r4, #12]
    12ee:	9a03      	ldr	r2, [sp, #12]
    12f0:	1a9b      	subs	r3, r3, r2
    12f2:	42ab      	cmp	r3, r5
    12f4:	dcf2      	bgt.n	12dc <_printf_i+0x1f8>
    12f6:	e7eb      	b.n	12d0 <_printf_i+0x1ec>
    12f8:	2500      	movs	r5, #0
    12fa:	f104 0919 	add.w	r9, r4, #25
    12fe:	e7f5      	b.n	12ec <_printf_i+0x208>
    1300:	2800      	cmp	r0, #0
    1302:	d1ad      	bne.n	1260 <_printf_i+0x17c>
    1304:	f899 3000 	ldrb.w	r3, [r9]
    1308:	f104 0542 	add.w	r5, r4, #66	; 0x42
    130c:	f884 3042 	strb.w	r3, [r4, #66]	; 0x42
    1310:	e769      	b.n	11e6 <_printf_i+0x102>
    1312:	bf00      	nop
    1314:	000035b9 			; <UNDEFINED> instruction: 0x000035b9
    1318:	000035ca 	andeq	r3, r0, sl, asr #11

0000131c <_iprintf_r>:
    131c:	b40e      	push	{r1, r2, r3}
    131e:	b517      	push	{r0, r1, r2, r4, lr}
    1320:	4604      	mov	r4, r0
    1322:	b118      	cbz	r0, 132c <_iprintf_r+0x10>
    1324:	6983      	ldr	r3, [r0, #24]
    1326:	b90b      	cbnz	r3, 132c <_iprintf_r+0x10>
    1328:	f7ff fb4c 	bl	9c4 <__sinit>
    132c:	ab06      	add	r3, sp, #24
    132e:	9a05      	ldr	r2, [sp, #20]
    1330:	68a1      	ldr	r1, [r4, #8]
    1332:	4620      	mov	r0, r4
    1334:	9301      	str	r3, [sp, #4]
    1336:	f7ff fd3b 	bl	db0 <_vfiprintf_r>
    133a:	b003      	add	sp, #12
    133c:	e8bd 4010 	ldmia.w	sp!, {r4, lr}
    1340:	b003      	add	sp, #12
    1342:	4770      	bx	lr

00001344 <iprintf>:
    1344:	b40f      	push	{r0, r1, r2, r3}
    1346:	4b0a      	ldr	r3, [pc, #40]	; (1370 <iprintf+0x2c>)
    1348:	b513      	push	{r0, r1, r4, lr}
    134a:	681c      	ldr	r4, [r3, #0]
    134c:	b124      	cbz	r4, 1358 <iprintf+0x14>
    134e:	69a3      	ldr	r3, [r4, #24]
    1350:	b913      	cbnz	r3, 1358 <iprintf+0x14>
    1352:	4620      	mov	r0, r4
    1354:	f7ff fb36 	bl	9c4 <__sinit>
    1358:	ab05      	add	r3, sp, #20
    135a:	9a04      	ldr	r2, [sp, #16]
    135c:	68a1      	ldr	r1, [r4, #8]
    135e:	4620      	mov	r0, r4
    1360:	9301      	str	r3, [sp, #4]
    1362:	f7ff fd25 	bl	db0 <_vfiprintf_r>
    1366:	b002      	add	sp, #8
    1368:	e8bd 4010 	ldmia.w	sp!, {r4, lr}
    136c:	b004      	add	sp, #16
    136e:	4770      	bx	lr
    1370:	00003168 	andeq	r3, r0, r8, ror #2

00001374 <_puts_r>:
    1374:	b570      	push	{r4, r5, r6, lr}
    1376:	460e      	mov	r6, r1
    1378:	4605      	mov	r5, r0
    137a:	b118      	cbz	r0, 1384 <_puts_r+0x10>
    137c:	6983      	ldr	r3, [r0, #24]
    137e:	b90b      	cbnz	r3, 1384 <_puts_r+0x10>
    1380:	f7ff fb20 	bl	9c4 <__sinit>
    1384:	69ab      	ldr	r3, [r5, #24]
    1386:	68ac      	ldr	r4, [r5, #8]
    1388:	b913      	cbnz	r3, 1390 <_puts_r+0x1c>
    138a:	4628      	mov	r0, r5
    138c:	f7ff fb1a 	bl	9c4 <__sinit>
    1390:	4b23      	ldr	r3, [pc, #140]	; (1420 <_puts_r+0xac>)
    1392:	429c      	cmp	r4, r3
    1394:	d117      	bne.n	13c6 <_puts_r+0x52>
    1396:	686c      	ldr	r4, [r5, #4]
    1398:	89a3      	ldrh	r3, [r4, #12]
    139a:	071b      	lsls	r3, r3, #28
    139c:	d51d      	bpl.n	13da <_puts_r+0x66>
    139e:	6923      	ldr	r3, [r4, #16]
    13a0:	b1db      	cbz	r3, 13da <_puts_r+0x66>
    13a2:	3e01      	subs	r6, #1
    13a4:	f816 1f01 	ldrb.w	r1, [r6, #1]!
    13a8:	68a3      	ldr	r3, [r4, #8]
    13aa:	3b01      	subs	r3, #1
    13ac:	60a3      	str	r3, [r4, #8]
    13ae:	b9e9      	cbnz	r1, 13ec <_puts_r+0x78>
    13b0:	2b00      	cmp	r3, #0
    13b2:	da2e      	bge.n	1412 <_puts_r+0x9e>
    13b4:	4622      	mov	r2, r4
    13b6:	210a      	movs	r1, #10
    13b8:	4628      	mov	r0, r5
    13ba:	f000 f8c3 	bl	1544 <__swbuf_r>
    13be:	3001      	adds	r0, #1
    13c0:	d011      	beq.n	13e6 <_puts_r+0x72>
    13c2:	200a      	movs	r0, #10
    13c4:	e011      	b.n	13ea <_puts_r+0x76>
    13c6:	4b17      	ldr	r3, [pc, #92]	; (1424 <_puts_r+0xb0>)
    13c8:	429c      	cmp	r4, r3
    13ca:	d101      	bne.n	13d0 <_puts_r+0x5c>
    13cc:	68ac      	ldr	r4, [r5, #8]
    13ce:	e7e3      	b.n	1398 <_puts_r+0x24>
    13d0:	4b15      	ldr	r3, [pc, #84]	; (1428 <_puts_r+0xb4>)
    13d2:	429c      	cmp	r4, r3
    13d4:	bf08      	it	eq
    13d6:	68ec      	ldreq	r4, [r5, #12]
    13d8:	e7de      	b.n	1398 <_puts_r+0x24>
    13da:	4621      	mov	r1, r4
    13dc:	4628      	mov	r0, r5
    13de:	f000 f91d 	bl	161c <__swsetup_r>
    13e2:	2800      	cmp	r0, #0
    13e4:	d0dd      	beq.n	13a2 <_puts_r+0x2e>
    13e6:	f04f 30ff 	mov.w	r0, #4294967295
    13ea:	bd70      	pop	{r4, r5, r6, pc}
    13ec:	2b00      	cmp	r3, #0
    13ee:	da04      	bge.n	13fa <_puts_r+0x86>
    13f0:	69a2      	ldr	r2, [r4, #24]
    13f2:	429a      	cmp	r2, r3
    13f4:	dc06      	bgt.n	1404 <_puts_r+0x90>
    13f6:	290a      	cmp	r1, #10
    13f8:	d004      	beq.n	1404 <_puts_r+0x90>
    13fa:	6823      	ldr	r3, [r4, #0]
    13fc:	1c5a      	adds	r2, r3, #1
    13fe:	6022      	str	r2, [r4, #0]
    1400:	7019      	strb	r1, [r3, #0]
    1402:	e7cf      	b.n	13a4 <_puts_r+0x30>
    1404:	4622      	mov	r2, r4
    1406:	4628      	mov	r0, r5
    1408:	f000 f89c 	bl	1544 <__swbuf_r>
    140c:	3001      	adds	r0, #1
    140e:	d1c9      	bne.n	13a4 <_puts_r+0x30>
    1410:	e7e9      	b.n	13e6 <_puts_r+0x72>
    1412:	6823      	ldr	r3, [r4, #0]
    1414:	200a      	movs	r0, #10
    1416:	1c5a      	adds	r2, r3, #1
    1418:	6022      	str	r2, [r4, #0]
    141a:	7018      	strb	r0, [r3, #0]
    141c:	e7e5      	b.n	13ea <_puts_r+0x76>
    141e:	bf00      	nop
    1420:	00003564 	andeq	r3, r0, r4, ror #10
    1424:	00003584 	andeq	r3, r0, r4, lsl #11
    1428:	00003544 	andeq	r3, r0, r4, asr #10

0000142c <puts>:
    142c:	4b02      	ldr	r3, [pc, #8]	; (1438 <puts+0xc>)
    142e:	4601      	mov	r1, r0
    1430:	6818      	ldr	r0, [r3, #0]
    1432:	f7ff bf9f 	b.w	1374 <_puts_r>
    1436:	bf00      	nop
    1438:	00003168 	andeq	r3, r0, r8, ror #2

0000143c <_sbrk_r>:
    143c:	b538      	push	{r3, r4, r5, lr}
    143e:	4605      	mov	r5, r0
    1440:	4c05      	ldr	r4, [pc, #20]	; (1458 <_sbrk_r+0x1c>)
    1442:	4608      	mov	r0, r1
    1444:	2300      	movs	r3, #0
    1446:	6023      	str	r3, [r4, #0]
    1448:	f001 fe2a 	bl	30a0 <_sbrk>
    144c:	1c43      	adds	r3, r0, #1
    144e:	d102      	bne.n	1456 <_sbrk_r+0x1a>
    1450:	6823      	ldr	r3, [r4, #0]
    1452:	b103      	cbz	r3, 1456 <_sbrk_r+0x1a>
    1454:	602b      	str	r3, [r5, #0]
    1456:	bd38      	pop	{r3, r4, r5, pc}
    1458:	000037ec 	andeq	r3, r0, ip, ror #15

0000145c <iscanf>:
    145c:	b40f      	push	{r0, r1, r2, r3}
    145e:	4b0a      	ldr	r3, [pc, #40]	; (1488 <iscanf+0x2c>)
    1460:	b513      	push	{r0, r1, r4, lr}
    1462:	681c      	ldr	r4, [r3, #0]
    1464:	b124      	cbz	r4, 1470 <iscanf+0x14>
    1466:	69a3      	ldr	r3, [r4, #24]
    1468:	b913      	cbnz	r3, 1470 <iscanf+0x14>
    146a:	4620      	mov	r0, r4
    146c:	f7ff faaa 	bl	9c4 <__sinit>
    1470:	ab05      	add	r3, sp, #20
    1472:	9a04      	ldr	r2, [sp, #16]
    1474:	6861      	ldr	r1, [r4, #4]
    1476:	4620      	mov	r0, r4
    1478:	9301      	str	r3, [sp, #4]
    147a:	f000 fdb7 	bl	1fec <_vfiscanf_r>
    147e:	b002      	add	sp, #8
    1480:	e8bd 4010 	ldmia.w	sp!, {r4, lr}
    1484:	b004      	add	sp, #16
    1486:	4770      	bx	lr
    1488:	00003168 	andeq	r3, r0, r8, ror #2

0000148c <_iscanf_r>:
    148c:	b40e      	push	{r1, r2, r3}
    148e:	b517      	push	{r0, r1, r2, r4, lr}
    1490:	4604      	mov	r4, r0
    1492:	b118      	cbz	r0, 149c <_iscanf_r+0x10>
    1494:	6983      	ldr	r3, [r0, #24]
    1496:	b90b      	cbnz	r3, 149c <_iscanf_r+0x10>
    1498:	f7ff fa94 	bl	9c4 <__sinit>
    149c:	ab06      	add	r3, sp, #24
    149e:	9a05      	ldr	r2, [sp, #20]
    14a0:	6861      	ldr	r1, [r4, #4]
    14a2:	4620      	mov	r0, r4
    14a4:	9301      	str	r3, [sp, #4]
    14a6:	f000 fda1 	bl	1fec <_vfiscanf_r>
    14aa:	b003      	add	sp, #12
    14ac:	e8bd 4010 	ldmia.w	sp!, {r4, lr}
    14b0:	b003      	add	sp, #12
    14b2:	4770      	bx	lr

000014b4 <__sread>:
    14b4:	b510      	push	{r4, lr}
    14b6:	460c      	mov	r4, r1
    14b8:	f9b1 100e 	ldrsh.w	r1, [r1, #14]
    14bc:	f000 ff12 	bl	22e4 <_read_r>
    14c0:	2800      	cmp	r0, #0
    14c2:	bfab      	itete	ge
    14c4:	6d63      	ldrge	r3, [r4, #84]	; 0x54
    14c6:	89a3      	ldrhlt	r3, [r4, #12]
    14c8:	181b      	addge	r3, r3, r0
    14ca:	f423 5380 	biclt.w	r3, r3, #4096	; 0x1000
    14ce:	bfac      	ite	ge
    14d0:	6563      	strge	r3, [r4, #84]	; 0x54
    14d2:	81a3      	strhlt	r3, [r4, #12]
    14d4:	bd10      	pop	{r4, pc}

000014d6 <__seofread>:
    14d6:	2000      	movs	r0, #0
    14d8:	4770      	bx	lr

000014da <__swrite>:
    14da:	e92d 41f0 	stmdb	sp!, {r4, r5, r6, r7, r8, lr}
    14de:	461f      	mov	r7, r3
    14e0:	898b      	ldrh	r3, [r1, #12]
    14e2:	4605      	mov	r5, r0
    14e4:	460c      	mov	r4, r1
    14e6:	4616      	mov	r6, r2
    14e8:	05db      	lsls	r3, r3, #23
    14ea:	d505      	bpl.n	14f8 <__swrite+0x1e>
    14ec:	2302      	movs	r3, #2
    14ee:	2200      	movs	r2, #0
    14f0:	f9b1 100e 	ldrsh.w	r1, [r1, #14]
    14f4:	f000 fb24 	bl	1b40 <_lseek_r>
    14f8:	89a3      	ldrh	r3, [r4, #12]
    14fa:	4632      	mov	r2, r6
    14fc:	f9b4 100e 	ldrsh.w	r1, [r4, #14]
    1500:	4628      	mov	r0, r5
    1502:	f423 5380 	bic.w	r3, r3, #4096	; 0x1000
    1506:	81a3      	strh	r3, [r4, #12]
    1508:	463b      	mov	r3, r7
    150a:	e8bd 41f0 	ldmia.w	sp!, {r4, r5, r6, r7, r8, lr}
    150e:	f000 b873 	b.w	15f8 <_write_r>

00001512 <__sseek>:
    1512:	b510      	push	{r4, lr}
    1514:	460c      	mov	r4, r1
    1516:	f9b1 100e 	ldrsh.w	r1, [r1, #14]
    151a:	f000 fb11 	bl	1b40 <_lseek_r>
    151e:	1c43      	adds	r3, r0, #1
    1520:	89a3      	ldrh	r3, [r4, #12]
    1522:	bf15      	itete	ne
    1524:	6560      	strne	r0, [r4, #84]	; 0x54
    1526:	f423 5380 	biceq.w	r3, r3, #4096	; 0x1000
    152a:	f443 5380 	orrne.w	r3, r3, #4096	; 0x1000
    152e:	81a3      	strheq	r3, [r4, #12]
    1530:	bf18      	it	ne
    1532:	81a3      	strhne	r3, [r4, #12]
    1534:	bd10      	pop	{r4, pc}

00001536 <__sclose>:
    1536:	f9b1 100e 	ldrsh.w	r1, [r1, #14]
    153a:	f000 b8dd 	b.w	16f8 <_close_r>

0000153e <isatty>:
    153e:	f001 bd9d 	b.w	307c <_isatty>
	...

00001544 <__swbuf_r>:
    1544:	b5f8      	push	{r3, r4, r5, r6, r7, lr}
    1546:	460e      	mov	r6, r1
    1548:	4614      	mov	r4, r2
    154a:	4605      	mov	r5, r0
    154c:	b118      	cbz	r0, 1556 <__swbuf_r+0x12>
    154e:	6983      	ldr	r3, [r0, #24]
    1550:	b90b      	cbnz	r3, 1556 <__swbuf_r+0x12>
    1552:	f7ff fa37 	bl	9c4 <__sinit>
    1556:	4b21      	ldr	r3, [pc, #132]	; (15dc <__swbuf_r+0x98>)
    1558:	429c      	cmp	r4, r3
    155a:	d12a      	bne.n	15b2 <__swbuf_r+0x6e>
    155c:	686c      	ldr	r4, [r5, #4]
    155e:	69a3      	ldr	r3, [r4, #24]
    1560:	60a3      	str	r3, [r4, #8]
    1562:	89a3      	ldrh	r3, [r4, #12]
    1564:	071a      	lsls	r2, r3, #28
    1566:	d52e      	bpl.n	15c6 <__swbuf_r+0x82>
    1568:	6923      	ldr	r3, [r4, #16]
    156a:	b363      	cbz	r3, 15c6 <__swbuf_r+0x82>
    156c:	6923      	ldr	r3, [r4, #16]
    156e:	b2f6      	uxtb	r6, r6
    1570:	6820      	ldr	r0, [r4, #0]
    1572:	4637      	mov	r7, r6
    1574:	1ac0      	subs	r0, r0, r3
    1576:	6963      	ldr	r3, [r4, #20]
    1578:	4283      	cmp	r3, r0
    157a:	dc04      	bgt.n	1586 <__swbuf_r+0x42>
    157c:	4621      	mov	r1, r4
    157e:	4628      	mov	r0, r5
    1580:	f000 f950 	bl	1824 <_fflush_r>
    1584:	bb28      	cbnz	r0, 15d2 <__swbuf_r+0x8e>
    1586:	68a3      	ldr	r3, [r4, #8]
    1588:	3001      	adds	r0, #1
    158a:	3b01      	subs	r3, #1
    158c:	60a3      	str	r3, [r4, #8]
    158e:	6823      	ldr	r3, [r4, #0]
    1590:	1c5a      	adds	r2, r3, #1
    1592:	6022      	str	r2, [r4, #0]
    1594:	701e      	strb	r6, [r3, #0]
    1596:	6963      	ldr	r3, [r4, #20]
    1598:	4283      	cmp	r3, r0
    159a:	d004      	beq.n	15a6 <__swbuf_r+0x62>
    159c:	89a3      	ldrh	r3, [r4, #12]
    159e:	07db      	lsls	r3, r3, #31
    15a0:	d519      	bpl.n	15d6 <__swbuf_r+0x92>
    15a2:	2e0a      	cmp	r6, #10
    15a4:	d117      	bne.n	15d6 <__swbuf_r+0x92>
    15a6:	4621      	mov	r1, r4
    15a8:	4628      	mov	r0, r5
    15aa:	f000 f93b 	bl	1824 <_fflush_r>
    15ae:	b190      	cbz	r0, 15d6 <__swbuf_r+0x92>
    15b0:	e00f      	b.n	15d2 <__swbuf_r+0x8e>
    15b2:	4b0b      	ldr	r3, [pc, #44]	; (15e0 <__swbuf_r+0x9c>)
    15b4:	429c      	cmp	r4, r3
    15b6:	d101      	bne.n	15bc <__swbuf_r+0x78>
    15b8:	68ac      	ldr	r4, [r5, #8]
    15ba:	e7d0      	b.n	155e <__swbuf_r+0x1a>
    15bc:	4b09      	ldr	r3, [pc, #36]	; (15e4 <__swbuf_r+0xa0>)
    15be:	429c      	cmp	r4, r3
    15c0:	bf08      	it	eq
    15c2:	68ec      	ldreq	r4, [r5, #12]
    15c4:	e7cb      	b.n	155e <__swbuf_r+0x1a>
    15c6:	4621      	mov	r1, r4
    15c8:	4628      	mov	r0, r5
    15ca:	f000 f827 	bl	161c <__swsetup_r>
    15ce:	2800      	cmp	r0, #0
    15d0:	d0cc      	beq.n	156c <__swbuf_r+0x28>
    15d2:	f04f 37ff 	mov.w	r7, #4294967295
    15d6:	4638      	mov	r0, r7
    15d8:	bdf8      	pop	{r3, r4, r5, r6, r7, pc}
    15da:	bf00      	nop
    15dc:	00003564 	andeq	r3, r0, r4, ror #10
    15e0:	00003584 	andeq	r3, r0, r4, lsl #11
    15e4:	00003544 	andeq	r3, r0, r4, asr #10

000015e8 <__swbuf>:
    15e8:	4b02      	ldr	r3, [pc, #8]	; (15f4 <__swbuf+0xc>)
    15ea:	460a      	mov	r2, r1
    15ec:	4601      	mov	r1, r0
    15ee:	6818      	ldr	r0, [r3, #0]
    15f0:	f7ff bfa8 	b.w	1544 <__swbuf_r>
    15f4:	00003168 	andeq	r3, r0, r8, ror #2

000015f8 <_write_r>:
    15f8:	b538      	push	{r3, r4, r5, lr}
    15fa:	4605      	mov	r5, r0
    15fc:	4c06      	ldr	r4, [pc, #24]	; (1618 <_write_r+0x20>)
    15fe:	4608      	mov	r0, r1
    1600:	4611      	mov	r1, r2
    1602:	2200      	movs	r2, #0
    1604:	6022      	str	r2, [r4, #0]
    1606:	461a      	mov	r2, r3
    1608:	f7fe ed9c 	blx	144 <_write>
    160c:	1c43      	adds	r3, r0, #1
    160e:	d102      	bne.n	1616 <_write_r+0x1e>
    1610:	6823      	ldr	r3, [r4, #0]
    1612:	b103      	cbz	r3, 1616 <_write_r+0x1e>
    1614:	602b      	str	r3, [r5, #0]
    1616:	bd38      	pop	{r3, r4, r5, pc}
    1618:	000037ec 	andeq	r3, r0, ip, ror #15

0000161c <__swsetup_r>:
    161c:	4b32      	ldr	r3, [pc, #200]	; (16e8 <__swsetup_r+0xcc>)
    161e:	b570      	push	{r4, r5, r6, lr}
    1620:	4606      	mov	r6, r0
    1622:	681d      	ldr	r5, [r3, #0]
    1624:	460c      	mov	r4, r1
    1626:	b125      	cbz	r5, 1632 <__swsetup_r+0x16>
    1628:	69ab      	ldr	r3, [r5, #24]
    162a:	b913      	cbnz	r3, 1632 <__swsetup_r+0x16>
    162c:	4628      	mov	r0, r5
    162e:	f7ff f9c9 	bl	9c4 <__sinit>
    1632:	4b2e      	ldr	r3, [pc, #184]	; (16ec <__swsetup_r+0xd0>)
    1634:	429c      	cmp	r4, r3
    1636:	d10f      	bne.n	1658 <__swsetup_r+0x3c>
    1638:	686c      	ldr	r4, [r5, #4]
    163a:	f9b4 300c 	ldrsh.w	r3, [r4, #12]
    163e:	b29a      	uxth	r2, r3
    1640:	0715      	lsls	r5, r2, #28
    1642:	d42c      	bmi.n	169e <__swsetup_r+0x82>
    1644:	06d0      	lsls	r0, r2, #27
    1646:	d411      	bmi.n	166c <__swsetup_r+0x50>
    1648:	2209      	movs	r2, #9
    164a:	6032      	str	r2, [r6, #0]
    164c:	f043 0340 	orr.w	r3, r3, #64	; 0x40
    1650:	f04f 30ff 	mov.w	r0, #4294967295
    1654:	81a3      	strh	r3, [r4, #12]
    1656:	e03e      	b.n	16d6 <__swsetup_r+0xba>
    1658:	4b25      	ldr	r3, [pc, #148]	; (16f0 <__swsetup_r+0xd4>)
    165a:	429c      	cmp	r4, r3
    165c:	d101      	bne.n	1662 <__swsetup_r+0x46>
    165e:	68ac      	ldr	r4, [r5, #8]
    1660:	e7eb      	b.n	163a <__swsetup_r+0x1e>
    1662:	4b24      	ldr	r3, [pc, #144]	; (16f4 <__swsetup_r+0xd8>)
    1664:	429c      	cmp	r4, r3
    1666:	bf08      	it	eq
    1668:	68ec      	ldreq	r4, [r5, #12]
    166a:	e7e6      	b.n	163a <__swsetup_r+0x1e>
    166c:	0751      	lsls	r1, r2, #29
    166e:	d512      	bpl.n	1696 <__swsetup_r+0x7a>
    1670:	6b61      	ldr	r1, [r4, #52]	; 0x34
    1672:	b141      	cbz	r1, 1686 <__swsetup_r+0x6a>
    1674:	f104 0344 	add.w	r3, r4, #68	; 0x44
    1678:	4299      	cmp	r1, r3
    167a:	d002      	beq.n	1682 <__swsetup_r+0x66>
    167c:	4630      	mov	r0, r6
    167e:	f7ff fabb 	bl	bf8 <_free_r>
    1682:	2300      	movs	r3, #0
    1684:	6363      	str	r3, [r4, #52]	; 0x34
    1686:	89a3      	ldrh	r3, [r4, #12]
    1688:	f023 0324 	bic.w	r3, r3, #36	; 0x24
    168c:	81a3      	strh	r3, [r4, #12]
    168e:	2300      	movs	r3, #0
    1690:	6063      	str	r3, [r4, #4]
    1692:	6923      	ldr	r3, [r4, #16]
    1694:	6023      	str	r3, [r4, #0]
    1696:	89a3      	ldrh	r3, [r4, #12]
    1698:	f043 0308 	orr.w	r3, r3, #8
    169c:	81a3      	strh	r3, [r4, #12]
    169e:	6923      	ldr	r3, [r4, #16]
    16a0:	b94b      	cbnz	r3, 16b6 <__swsetup_r+0x9a>
    16a2:	89a3      	ldrh	r3, [r4, #12]
    16a4:	f403 7320 	and.w	r3, r3, #640	; 0x280
    16a8:	f5b3 7f00 	cmp.w	r3, #512	; 0x200
    16ac:	d003      	beq.n	16b6 <__swsetup_r+0x9a>
    16ae:	4621      	mov	r1, r4
    16b0:	4630      	mov	r0, r6
    16b2:	f000 fa7b 	bl	1bac <__smakebuf_r>
    16b6:	89a2      	ldrh	r2, [r4, #12]
    16b8:	f012 0301 	ands.w	r3, r2, #1
    16bc:	d00c      	beq.n	16d8 <__swsetup_r+0xbc>
    16be:	2300      	movs	r3, #0
    16c0:	60a3      	str	r3, [r4, #8]
    16c2:	6963      	ldr	r3, [r4, #20]
    16c4:	425b      	negs	r3, r3
    16c6:	61a3      	str	r3, [r4, #24]
    16c8:	6923      	ldr	r3, [r4, #16]
    16ca:	b953      	cbnz	r3, 16e2 <__swsetup_r+0xc6>
    16cc:	f9b4 300c 	ldrsh.w	r3, [r4, #12]
    16d0:	f013 0080 	ands.w	r0, r3, #128	; 0x80
    16d4:	d1ba      	bne.n	164c <__swsetup_r+0x30>
    16d6:	bd70      	pop	{r4, r5, r6, pc}
    16d8:	0792      	lsls	r2, r2, #30
    16da:	bf58      	it	pl
    16dc:	6963      	ldrpl	r3, [r4, #20]
    16de:	60a3      	str	r3, [r4, #8]
    16e0:	e7f2      	b.n	16c8 <__swsetup_r+0xac>
    16e2:	2000      	movs	r0, #0
    16e4:	e7f7      	b.n	16d6 <__swsetup_r+0xba>
    16e6:	bf00      	nop
    16e8:	00003168 	andeq	r3, r0, r8, ror #2
    16ec:	00003564 	andeq	r3, r0, r4, ror #10
    16f0:	00003584 	andeq	r3, r0, r4, lsl #11
    16f4:	00003544 	andeq	r3, r0, r4, asr #10

000016f8 <_close_r>:
    16f8:	b538      	push	{r3, r4, r5, lr}
    16fa:	4605      	mov	r5, r0
    16fc:	4c05      	ldr	r4, [pc, #20]	; (1714 <_close_r+0x1c>)
    16fe:	4608      	mov	r0, r1
    1700:	2300      	movs	r3, #0
    1702:	6023      	str	r3, [r4, #0]
    1704:	f001 fca6 	bl	3054 <_close>
    1708:	1c43      	adds	r3, r0, #1
    170a:	d102      	bne.n	1712 <_close_r+0x1a>
    170c:	6823      	ldr	r3, [r4, #0]
    170e:	b103      	cbz	r3, 1712 <_close_r+0x1a>
    1710:	602b      	str	r3, [r5, #0]
    1712:	bd38      	pop	{r3, r4, r5, pc}
    1714:	000037ec 	andeq	r3, r0, ip, ror #15

00001718 <__sflush_r>:
    1718:	898a      	ldrh	r2, [r1, #12]
    171a:	e92d 41f0 	stmdb	sp!, {r4, r5, r6, r7, r8, lr}
    171e:	4605      	mov	r5, r0
    1720:	0710      	lsls	r0, r2, #28
    1722:	460c      	mov	r4, r1
    1724:	d459      	bmi.n	17da <__sflush_r+0xc2>
    1726:	684b      	ldr	r3, [r1, #4]
    1728:	2b00      	cmp	r3, #0
    172a:	dc05      	bgt.n	1738 <__sflush_r+0x20>
    172c:	6c0b      	ldr	r3, [r1, #64]	; 0x40
    172e:	2b00      	cmp	r3, #0
    1730:	dc02      	bgt.n	1738 <__sflush_r+0x20>
    1732:	2000      	movs	r0, #0
    1734:	e8bd 81f0 	ldmia.w	sp!, {r4, r5, r6, r7, r8, pc}
    1738:	6ae6      	ldr	r6, [r4, #44]	; 0x2c
    173a:	2e00      	cmp	r6, #0
    173c:	d0f9      	beq.n	1732 <__sflush_r+0x1a>
    173e:	f412 5280 	ands.w	r2, r2, #4096	; 0x1000
    1742:	682f      	ldr	r7, [r5, #0]
    1744:	f04f 0300 	mov.w	r3, #0
    1748:	6a21      	ldr	r1, [r4, #32]
    174a:	602b      	str	r3, [r5, #0]
    174c:	d032      	beq.n	17b4 <__sflush_r+0x9c>
    174e:	6d60      	ldr	r0, [r4, #84]	; 0x54
    1750:	89a3      	ldrh	r3, [r4, #12]
    1752:	075a      	lsls	r2, r3, #29
    1754:	d505      	bpl.n	1762 <__sflush_r+0x4a>
    1756:	6863      	ldr	r3, [r4, #4]
    1758:	1ac0      	subs	r0, r0, r3
    175a:	6b63      	ldr	r3, [r4, #52]	; 0x34
    175c:	b10b      	cbz	r3, 1762 <__sflush_r+0x4a>
    175e:	6c23      	ldr	r3, [r4, #64]	; 0x40
    1760:	1ac0      	subs	r0, r0, r3
    1762:	2300      	movs	r3, #0
    1764:	4602      	mov	r2, r0
    1766:	6ae6      	ldr	r6, [r4, #44]	; 0x2c
    1768:	4628      	mov	r0, r5
    176a:	6a21      	ldr	r1, [r4, #32]
    176c:	47b0      	blx	r6
    176e:	1c43      	adds	r3, r0, #1
    1770:	89a3      	ldrh	r3, [r4, #12]
    1772:	d106      	bne.n	1782 <__sflush_r+0x6a>
    1774:	6829      	ldr	r1, [r5, #0]
    1776:	291d      	cmp	r1, #29
    1778:	d848      	bhi.n	180c <__sflush_r+0xf4>
    177a:	4a29      	ldr	r2, [pc, #164]	; (1820 <__sflush_r+0x108>)
    177c:	40ca      	lsrs	r2, r1
    177e:	07d6      	lsls	r6, r2, #31
    1780:	d544      	bpl.n	180c <__sflush_r+0xf4>
    1782:	2200      	movs	r2, #0
    1784:	6062      	str	r2, [r4, #4]
    1786:	6922      	ldr	r2, [r4, #16]
    1788:	04d9      	lsls	r1, r3, #19
    178a:	6022      	str	r2, [r4, #0]
    178c:	d504      	bpl.n	1798 <__sflush_r+0x80>
    178e:	1c42      	adds	r2, r0, #1
    1790:	d101      	bne.n	1796 <__sflush_r+0x7e>
    1792:	682b      	ldr	r3, [r5, #0]
    1794:	b903      	cbnz	r3, 1798 <__sflush_r+0x80>
    1796:	6560      	str	r0, [r4, #84]	; 0x54
    1798:	6b61      	ldr	r1, [r4, #52]	; 0x34
    179a:	602f      	str	r7, [r5, #0]
    179c:	2900      	cmp	r1, #0
    179e:	d0c8      	beq.n	1732 <__sflush_r+0x1a>
    17a0:	f104 0344 	add.w	r3, r4, #68	; 0x44
    17a4:	4299      	cmp	r1, r3
    17a6:	d002      	beq.n	17ae <__sflush_r+0x96>
    17a8:	4628      	mov	r0, r5
    17aa:	f7ff fa25 	bl	bf8 <_free_r>
    17ae:	2000      	movs	r0, #0
    17b0:	6360      	str	r0, [r4, #52]	; 0x34
    17b2:	e7bf      	b.n	1734 <__sflush_r+0x1c>
    17b4:	2301      	movs	r3, #1
    17b6:	4628      	mov	r0, r5
    17b8:	47b0      	blx	r6
    17ba:	1c41      	adds	r1, r0, #1
    17bc:	d1c8      	bne.n	1750 <__sflush_r+0x38>
    17be:	682b      	ldr	r3, [r5, #0]
    17c0:	2b00      	cmp	r3, #0
    17c2:	d0c5      	beq.n	1750 <__sflush_r+0x38>
    17c4:	2b1d      	cmp	r3, #29
    17c6:	d001      	beq.n	17cc <__sflush_r+0xb4>
    17c8:	2b16      	cmp	r3, #22
    17ca:	d101      	bne.n	17d0 <__sflush_r+0xb8>
    17cc:	602f      	str	r7, [r5, #0]
    17ce:	e7b0      	b.n	1732 <__sflush_r+0x1a>
    17d0:	89a3      	ldrh	r3, [r4, #12]
    17d2:	f043 0340 	orr.w	r3, r3, #64	; 0x40
    17d6:	81a3      	strh	r3, [r4, #12]
    17d8:	e7ac      	b.n	1734 <__sflush_r+0x1c>
    17da:	690f      	ldr	r7, [r1, #16]
    17dc:	2f00      	cmp	r7, #0
    17de:	d0a8      	beq.n	1732 <__sflush_r+0x1a>
    17e0:	0793      	lsls	r3, r2, #30
    17e2:	680e      	ldr	r6, [r1, #0]
    17e4:	600f      	str	r7, [r1, #0]
    17e6:	bf08      	it	eq
    17e8:	694b      	ldreq	r3, [r1, #20]
    17ea:	eba6 0807 	sub.w	r8, r6, r7
    17ee:	bf18      	it	ne
    17f0:	2300      	movne	r3, #0
    17f2:	608b      	str	r3, [r1, #8]
    17f4:	f1b8 0f00 	cmp.w	r8, #0
    17f8:	dd9b      	ble.n	1732 <__sflush_r+0x1a>
    17fa:	4643      	mov	r3, r8
    17fc:	463a      	mov	r2, r7
    17fe:	6a21      	ldr	r1, [r4, #32]
    1800:	4628      	mov	r0, r5
    1802:	6aa6      	ldr	r6, [r4, #40]	; 0x28
    1804:	47b0      	blx	r6
    1806:	2800      	cmp	r0, #0
    1808:	dc06      	bgt.n	1818 <__sflush_r+0x100>
    180a:	89a3      	ldrh	r3, [r4, #12]
    180c:	f043 0340 	orr.w	r3, r3, #64	; 0x40
    1810:	f04f 30ff 	mov.w	r0, #4294967295
    1814:	81a3      	strh	r3, [r4, #12]
    1816:	e78d      	b.n	1734 <__sflush_r+0x1c>
    1818:	4407      	add	r7, r0
    181a:	eba8 0800 	sub.w	r8, r8, r0
    181e:	e7e9      	b.n	17f4 <__sflush_r+0xdc>
    1820:	20400001 	subcs	r0, r0, r1

00001824 <_fflush_r>:
    1824:	b538      	push	{r3, r4, r5, lr}
    1826:	4605      	mov	r5, r0
    1828:	690b      	ldr	r3, [r1, #16]
    182a:	460c      	mov	r4, r1
    182c:	b1db      	cbz	r3, 1866 <_fflush_r+0x42>
    182e:	b118      	cbz	r0, 1838 <_fflush_r+0x14>
    1830:	6983      	ldr	r3, [r0, #24]
    1832:	b90b      	cbnz	r3, 1838 <_fflush_r+0x14>
    1834:	f7ff f8c6 	bl	9c4 <__sinit>
    1838:	4b0c      	ldr	r3, [pc, #48]	; (186c <_fflush_r+0x48>)
    183a:	429c      	cmp	r4, r3
    183c:	d109      	bne.n	1852 <_fflush_r+0x2e>
    183e:	686c      	ldr	r4, [r5, #4]
    1840:	f9b4 300c 	ldrsh.w	r3, [r4, #12]
    1844:	b17b      	cbz	r3, 1866 <_fflush_r+0x42>
    1846:	4621      	mov	r1, r4
    1848:	4628      	mov	r0, r5
    184a:	e8bd 4038 	ldmia.w	sp!, {r3, r4, r5, lr}
    184e:	f7ff bf63 	b.w	1718 <__sflush_r>
    1852:	4b07      	ldr	r3, [pc, #28]	; (1870 <_fflush_r+0x4c>)
    1854:	429c      	cmp	r4, r3
    1856:	d101      	bne.n	185c <_fflush_r+0x38>
    1858:	68ac      	ldr	r4, [r5, #8]
    185a:	e7f1      	b.n	1840 <_fflush_r+0x1c>
    185c:	4b05      	ldr	r3, [pc, #20]	; (1874 <_fflush_r+0x50>)
    185e:	429c      	cmp	r4, r3
    1860:	bf08      	it	eq
    1862:	68ec      	ldreq	r4, [r5, #12]
    1864:	e7ec      	b.n	1840 <_fflush_r+0x1c>
    1866:	2000      	movs	r0, #0
    1868:	bd38      	pop	{r3, r4, r5, pc}
    186a:	bf00      	nop
    186c:	00003564 	andeq	r3, r0, r4, ror #10
    1870:	00003584 	andeq	r3, r0, r4, lsl #11
    1874:	00003544 	andeq	r3, r0, r4, asr #10

00001878 <fflush>:
    1878:	4601      	mov	r1, r0
    187a:	b920      	cbnz	r0, 1886 <fflush+0xe>
    187c:	4b04      	ldr	r3, [pc, #16]	; (1890 <fflush+0x18>)
    187e:	4905      	ldr	r1, [pc, #20]	; (1894 <fflush+0x1c>)
    1880:	6818      	ldr	r0, [r3, #0]
    1882:	f7ff b95f 	b.w	b44 <_fwalk_reent>
    1886:	4b04      	ldr	r3, [pc, #16]	; (1898 <fflush+0x20>)
    1888:	6818      	ldr	r0, [r3, #0]
    188a:	f7ff bfcb 	b.w	1824 <_fflush_r>
    188e:	bf00      	nop
    1890:	000035a4 	andeq	r3, r0, r4, lsr #11
    1894:	00001825 	andeq	r1, r0, r5, lsr #16
    1898:	00003168 	andeq	r3, r0, r8, ror #2

0000189c <__sfvwrite_r>:
    189c:	6893      	ldr	r3, [r2, #8]
    189e:	e92d 4ff7 	stmdb	sp!, {r0, r1, r2, r4, r5, r6, r7, r8, r9, sl, fp, lr}
    18a2:	4607      	mov	r7, r0
    18a4:	460c      	mov	r4, r1
    18a6:	4690      	mov	r8, r2
    18a8:	b91b      	cbnz	r3, 18b2 <__sfvwrite_r+0x16>
    18aa:	2000      	movs	r0, #0
    18ac:	b003      	add	sp, #12
    18ae:	e8bd 8ff0 	ldmia.w	sp!, {r4, r5, r6, r7, r8, r9, sl, fp, pc}
    18b2:	898b      	ldrh	r3, [r1, #12]
    18b4:	0718      	lsls	r0, r3, #28
    18b6:	d550      	bpl.n	195a <__sfvwrite_r+0xbe>
    18b8:	690b      	ldr	r3, [r1, #16]
    18ba:	2b00      	cmp	r3, #0
    18bc:	d04d      	beq.n	195a <__sfvwrite_r+0xbe>
    18be:	89a3      	ldrh	r3, [r4, #12]
    18c0:	f8d8 6000 	ldr.w	r6, [r8]
    18c4:	f013 0902 	ands.w	r9, r3, #2
    18c8:	d16c      	bne.n	19a4 <__sfvwrite_r+0x108>
    18ca:	f013 0301 	ands.w	r3, r3, #1
    18ce:	f000 809c 	beq.w	1a0a <__sfvwrite_r+0x16e>
    18d2:	4648      	mov	r0, r9
    18d4:	46ca      	mov	sl, r9
    18d6:	46cb      	mov	fp, r9
    18d8:	f1bb 0f00 	cmp.w	fp, #0
    18dc:	f000 8108 	beq.w	1af0 <__sfvwrite_r+0x254>
    18e0:	b950      	cbnz	r0, 18f8 <__sfvwrite_r+0x5c>
    18e2:	465a      	mov	r2, fp
    18e4:	210a      	movs	r1, #10
    18e6:	4650      	mov	r0, sl
    18e8:	f000 f9a0 	bl	1c2c <memchr>
    18ec:	2800      	cmp	r0, #0
    18ee:	f000 8104 	beq.w	1afa <__sfvwrite_r+0x25e>
    18f2:	3001      	adds	r0, #1
    18f4:	eba0 090a 	sub.w	r9, r0, sl
    18f8:	45d9      	cmp	r9, fp
    18fa:	6820      	ldr	r0, [r4, #0]
    18fc:	6921      	ldr	r1, [r4, #16]
    18fe:	464b      	mov	r3, r9
    1900:	bf28      	it	cs
    1902:	465b      	movcs	r3, fp
    1904:	6962      	ldr	r2, [r4, #20]
    1906:	4288      	cmp	r0, r1
    1908:	f240 80fa 	bls.w	1b00 <__sfvwrite_r+0x264>
    190c:	68a5      	ldr	r5, [r4, #8]
    190e:	4415      	add	r5, r2
    1910:	42ab      	cmp	r3, r5
    1912:	f340 80f5 	ble.w	1b00 <__sfvwrite_r+0x264>
    1916:	4651      	mov	r1, sl
    1918:	462a      	mov	r2, r5
    191a:	f000 f9a0 	bl	1c5e <memmove>
    191e:	6823      	ldr	r3, [r4, #0]
    1920:	4621      	mov	r1, r4
    1922:	4638      	mov	r0, r7
    1924:	442b      	add	r3, r5
    1926:	6023      	str	r3, [r4, #0]
    1928:	f7ff ff7c 	bl	1824 <_fflush_r>
    192c:	2800      	cmp	r0, #0
    192e:	d167      	bne.n	1a00 <__sfvwrite_r+0x164>
    1930:	ebb9 0905 	subs.w	r9, r9, r5
    1934:	f040 80fe 	bne.w	1b34 <__sfvwrite_r+0x298>
    1938:	4621      	mov	r1, r4
    193a:	4638      	mov	r0, r7
    193c:	f7ff ff72 	bl	1824 <_fflush_r>
    1940:	2800      	cmp	r0, #0
    1942:	d15d      	bne.n	1a00 <__sfvwrite_r+0x164>
    1944:	f8d8 3008 	ldr.w	r3, [r8, #8]
    1948:	44aa      	add	sl, r5
    194a:	ebab 0b05 	sub.w	fp, fp, r5
    194e:	1b5d      	subs	r5, r3, r5
    1950:	f8c8 5008 	str.w	r5, [r8, #8]
    1954:	2d00      	cmp	r5, #0
    1956:	d1bf      	bne.n	18d8 <__sfvwrite_r+0x3c>
    1958:	e7a7      	b.n	18aa <__sfvwrite_r+0xe>
    195a:	4621      	mov	r1, r4
    195c:	4638      	mov	r0, r7
    195e:	f7ff fe5d 	bl	161c <__swsetup_r>
    1962:	2800      	cmp	r0, #0
    1964:	d0ab      	beq.n	18be <__sfvwrite_r+0x22>
    1966:	f04f 30ff 	mov.w	r0, #4294967295
    196a:	e79f      	b.n	18ac <__sfvwrite_r+0x10>
    196c:	e9d6 a900 	ldrd	sl, r9, [r6]
    1970:	3608      	adds	r6, #8
    1972:	f1b9 0f00 	cmp.w	r9, #0
    1976:	d0f9      	beq.n	196c <__sfvwrite_r+0xd0>
    1978:	45d9      	cmp	r9, fp
    197a:	464b      	mov	r3, r9
    197c:	4652      	mov	r2, sl
    197e:	6a21      	ldr	r1, [r4, #32]
    1980:	bf28      	it	cs
    1982:	465b      	movcs	r3, fp
    1984:	4638      	mov	r0, r7
    1986:	6aa5      	ldr	r5, [r4, #40]	; 0x28
    1988:	47a8      	blx	r5
    198a:	2800      	cmp	r0, #0
    198c:	dd38      	ble.n	1a00 <__sfvwrite_r+0x164>
    198e:	f8d8 3008 	ldr.w	r3, [r8, #8]
    1992:	4482      	add	sl, r0
    1994:	eba9 0900 	sub.w	r9, r9, r0
    1998:	1a18      	subs	r0, r3, r0
    199a:	f8c8 0008 	str.w	r0, [r8, #8]
    199e:	2800      	cmp	r0, #0
    19a0:	d1e7      	bne.n	1972 <__sfvwrite_r+0xd6>
    19a2:	e782      	b.n	18aa <__sfvwrite_r+0xe>
    19a4:	f04f 0a00 	mov.w	sl, #0
    19a8:	f8df b190 	ldr.w	fp, [pc, #400]	; 1b3c <__sfvwrite_r+0x2a0>
    19ac:	46d1      	mov	r9, sl
    19ae:	e7e0      	b.n	1972 <__sfvwrite_r+0xd6>
    19b0:	e9d6 9a00 	ldrd	r9, sl, [r6]
    19b4:	3608      	adds	r6, #8
    19b6:	f1ba 0f00 	cmp.w	sl, #0
    19ba:	d0f9      	beq.n	19b0 <__sfvwrite_r+0x114>
    19bc:	89a2      	ldrh	r2, [r4, #12]
    19be:	68a3      	ldr	r3, [r4, #8]
    19c0:	0591      	lsls	r1, r2, #22
    19c2:	6820      	ldr	r0, [r4, #0]
    19c4:	d564      	bpl.n	1a90 <__sfvwrite_r+0x1f4>
    19c6:	4553      	cmp	r3, sl
    19c8:	d836      	bhi.n	1a38 <__sfvwrite_r+0x19c>
    19ca:	f412 6f90 	tst.w	r2, #1152	; 0x480
    19ce:	d033      	beq.n	1a38 <__sfvwrite_r+0x19c>
    19d0:	6965      	ldr	r5, [r4, #20]
    19d2:	6921      	ldr	r1, [r4, #16]
    19d4:	eb05 0545 	add.w	r5, r5, r5, lsl #1
    19d8:	eba0 0b01 	sub.w	fp, r0, r1
    19dc:	f10b 0301 	add.w	r3, fp, #1
    19e0:	eb05 75d5 	add.w	r5, r5, r5, lsr #31
    19e4:	4453      	add	r3, sl
    19e6:	106d      	asrs	r5, r5, #1
    19e8:	429d      	cmp	r5, r3
    19ea:	bf38      	it	cc
    19ec:	461d      	movcc	r5, r3
    19ee:	0553      	lsls	r3, r2, #21
    19f0:	d53e      	bpl.n	1a70 <__sfvwrite_r+0x1d4>
    19f2:	4629      	mov	r1, r5
    19f4:	4638      	mov	r0, r7
    19f6:	f7ff f94b 	bl	c90 <_malloc_r>
    19fa:	b948      	cbnz	r0, 1a10 <__sfvwrite_r+0x174>
    19fc:	230c      	movs	r3, #12
    19fe:	603b      	str	r3, [r7, #0]
    1a00:	89a3      	ldrh	r3, [r4, #12]
    1a02:	f043 0340 	orr.w	r3, r3, #64	; 0x40
    1a06:	81a3      	strh	r3, [r4, #12]
    1a08:	e7ad      	b.n	1966 <__sfvwrite_r+0xca>
    1a0a:	4699      	mov	r9, r3
    1a0c:	469a      	mov	sl, r3
    1a0e:	e7d2      	b.n	19b6 <__sfvwrite_r+0x11a>
    1a10:	465a      	mov	r2, fp
    1a12:	6921      	ldr	r1, [r4, #16]
    1a14:	9001      	str	r0, [sp, #4]
    1a16:	f000 f917 	bl	1c48 <memcpy>
    1a1a:	89a2      	ldrh	r2, [r4, #12]
    1a1c:	9b01      	ldr	r3, [sp, #4]
    1a1e:	f422 6290 	bic.w	r2, r2, #1152	; 0x480
    1a22:	f042 0280 	orr.w	r2, r2, #128	; 0x80
    1a26:	81a2      	strh	r2, [r4, #12]
    1a28:	6123      	str	r3, [r4, #16]
    1a2a:	445b      	add	r3, fp
    1a2c:	6023      	str	r3, [r4, #0]
    1a2e:	4653      	mov	r3, sl
    1a30:	6165      	str	r5, [r4, #20]
    1a32:	eba5 050b 	sub.w	r5, r5, fp
    1a36:	60a5      	str	r5, [r4, #8]
    1a38:	4553      	cmp	r3, sl
    1a3a:	4649      	mov	r1, r9
    1a3c:	6820      	ldr	r0, [r4, #0]
    1a3e:	4655      	mov	r5, sl
    1a40:	bf28      	it	cs
    1a42:	4653      	movcs	r3, sl
    1a44:	9301      	str	r3, [sp, #4]
    1a46:	461a      	mov	r2, r3
    1a48:	f000 f909 	bl	1c5e <memmove>
    1a4c:	68a2      	ldr	r2, [r4, #8]
    1a4e:	9b01      	ldr	r3, [sp, #4]
    1a50:	1ad2      	subs	r2, r2, r3
    1a52:	60a2      	str	r2, [r4, #8]
    1a54:	6822      	ldr	r2, [r4, #0]
    1a56:	4413      	add	r3, r2
    1a58:	6023      	str	r3, [r4, #0]
    1a5a:	f8d8 3008 	ldr.w	r3, [r8, #8]
    1a5e:	44a9      	add	r9, r5
    1a60:	ebaa 0a05 	sub.w	sl, sl, r5
    1a64:	1b5d      	subs	r5, r3, r5
    1a66:	f8c8 5008 	str.w	r5, [r8, #8]
    1a6a:	2d00      	cmp	r5, #0
    1a6c:	d1a3      	bne.n	19b6 <__sfvwrite_r+0x11a>
    1a6e:	e71c      	b.n	18aa <__sfvwrite_r+0xe>
    1a70:	462a      	mov	r2, r5
    1a72:	4638      	mov	r0, r7
    1a74:	f000 f90e 	bl	1c94 <_realloc_r>
    1a78:	4603      	mov	r3, r0
    1a7a:	2800      	cmp	r0, #0
    1a7c:	d1d4      	bne.n	1a28 <__sfvwrite_r+0x18c>
    1a7e:	6921      	ldr	r1, [r4, #16]
    1a80:	4638      	mov	r0, r7
    1a82:	f7ff f8b9 	bl	bf8 <_free_r>
    1a86:	89a3      	ldrh	r3, [r4, #12]
    1a88:	f023 0380 	bic.w	r3, r3, #128	; 0x80
    1a8c:	81a3      	strh	r3, [r4, #12]
    1a8e:	e7b5      	b.n	19fc <__sfvwrite_r+0x160>
    1a90:	6922      	ldr	r2, [r4, #16]
    1a92:	4282      	cmp	r2, r0
    1a94:	d302      	bcc.n	1a9c <__sfvwrite_r+0x200>
    1a96:	6965      	ldr	r5, [r4, #20]
    1a98:	4555      	cmp	r5, sl
    1a9a:	d916      	bls.n	1aca <__sfvwrite_r+0x22e>
    1a9c:	4553      	cmp	r3, sl
    1a9e:	4649      	mov	r1, r9
    1aa0:	bf28      	it	cs
    1aa2:	4653      	movcs	r3, sl
    1aa4:	461a      	mov	r2, r3
    1aa6:	461d      	mov	r5, r3
    1aa8:	f000 f8d9 	bl	1c5e <memmove>
    1aac:	68a3      	ldr	r3, [r4, #8]
    1aae:	6822      	ldr	r2, [r4, #0]
    1ab0:	1b5b      	subs	r3, r3, r5
    1ab2:	60a3      	str	r3, [r4, #8]
    1ab4:	442a      	add	r2, r5
    1ab6:	6022      	str	r2, [r4, #0]
    1ab8:	2b00      	cmp	r3, #0
    1aba:	d1ce      	bne.n	1a5a <__sfvwrite_r+0x1be>
    1abc:	4621      	mov	r1, r4
    1abe:	4638      	mov	r0, r7
    1ac0:	f7ff feb0 	bl	1824 <_fflush_r>
    1ac4:	2800      	cmp	r0, #0
    1ac6:	d0c8      	beq.n	1a5a <__sfvwrite_r+0x1be>
    1ac8:	e79a      	b.n	1a00 <__sfvwrite_r+0x164>
    1aca:	4b1b      	ldr	r3, [pc, #108]	; (1b38 <__sfvwrite_r+0x29c>)
    1acc:	4629      	mov	r1, r5
    1ace:	459a      	cmp	sl, r3
    1ad0:	bf94      	ite	ls
    1ad2:	4650      	movls	r0, sl
    1ad4:	f06f 4000 	mvnhi.w	r0, #2147483648	; 0x80000000
    1ad8:	f001 f962 	bl	2da0 <__divsi3>
    1adc:	464a      	mov	r2, r9
    1ade:	6a21      	ldr	r1, [r4, #32]
    1ae0:	fb05 f300 	mul.w	r3, r5, r0
    1ae4:	6aa5      	ldr	r5, [r4, #40]	; 0x28
    1ae6:	4638      	mov	r0, r7
    1ae8:	47a8      	blx	r5
    1aea:	1e05      	subs	r5, r0, #0
    1aec:	dcb5      	bgt.n	1a5a <__sfvwrite_r+0x1be>
    1aee:	e787      	b.n	1a00 <__sfvwrite_r+0x164>
    1af0:	e9d6 ab00 	ldrd	sl, fp, [r6]
    1af4:	2000      	movs	r0, #0
    1af6:	3608      	adds	r6, #8
    1af8:	e6ee      	b.n	18d8 <__sfvwrite_r+0x3c>
    1afa:	f10b 0901 	add.w	r9, fp, #1
    1afe:	e6fb      	b.n	18f8 <__sfvwrite_r+0x5c>
    1b00:	429a      	cmp	r2, r3
    1b02:	dc09      	bgt.n	1b18 <__sfvwrite_r+0x27c>
    1b04:	6aa5      	ldr	r5, [r4, #40]	; 0x28
    1b06:	4613      	mov	r3, r2
    1b08:	6a21      	ldr	r1, [r4, #32]
    1b0a:	4652      	mov	r2, sl
    1b0c:	4638      	mov	r0, r7
    1b0e:	47a8      	blx	r5
    1b10:	1e05      	subs	r5, r0, #0
    1b12:	f73f af0d 	bgt.w	1930 <__sfvwrite_r+0x94>
    1b16:	e773      	b.n	1a00 <__sfvwrite_r+0x164>
    1b18:	461a      	mov	r2, r3
    1b1a:	4651      	mov	r1, sl
    1b1c:	9301      	str	r3, [sp, #4]
    1b1e:	f000 f89e 	bl	1c5e <memmove>
    1b22:	9b01      	ldr	r3, [sp, #4]
    1b24:	68a2      	ldr	r2, [r4, #8]
    1b26:	1ad2      	subs	r2, r2, r3
    1b28:	60a2      	str	r2, [r4, #8]
    1b2a:	6822      	ldr	r2, [r4, #0]
    1b2c:	461d      	mov	r5, r3
    1b2e:	441a      	add	r2, r3
    1b30:	6022      	str	r2, [r4, #0]
    1b32:	e6fd      	b.n	1930 <__sfvwrite_r+0x94>
    1b34:	2001      	movs	r0, #1
    1b36:	e705      	b.n	1944 <__sfvwrite_r+0xa8>
    1b38:	7ffffffe 	svcvc	0x00fffffe
    1b3c:	7ffffc00 	svcvc	0x00fffc00

00001b40 <_lseek_r>:
    1b40:	b538      	push	{r3, r4, r5, lr}
    1b42:	4605      	mov	r5, r0
    1b44:	4c06      	ldr	r4, [pc, #24]	; (1b60 <_lseek_r+0x20>)
    1b46:	4608      	mov	r0, r1
    1b48:	4611      	mov	r1, r2
    1b4a:	2200      	movs	r2, #0
    1b4c:	6022      	str	r2, [r4, #0]
    1b4e:	461a      	mov	r2, r3
    1b50:	f001 fa9c 	bl	308c <_lseek>
    1b54:	1c43      	adds	r3, r0, #1
    1b56:	d102      	bne.n	1b5e <_lseek_r+0x1e>
    1b58:	6823      	ldr	r3, [r4, #0]
    1b5a:	b103      	cbz	r3, 1b5e <_lseek_r+0x1e>
    1b5c:	602b      	str	r3, [r5, #0]
    1b5e:	bd38      	pop	{r3, r4, r5, pc}
    1b60:	000037ec 	andeq	r3, r0, ip, ror #15

00001b64 <__swhatbuf_r>:
    1b64:	b570      	push	{r4, r5, r6, lr}
    1b66:	460e      	mov	r6, r1
    1b68:	f9b1 100e 	ldrsh.w	r1, [r1, #14]
    1b6c:	b096      	sub	sp, #88	; 0x58
    1b6e:	4614      	mov	r4, r2
    1b70:	461d      	mov	r5, r3
    1b72:	2900      	cmp	r1, #0
    1b74:	da07      	bge.n	1b86 <__swhatbuf_r+0x22>
    1b76:	2300      	movs	r3, #0
    1b78:	602b      	str	r3, [r5, #0]
    1b7a:	89b3      	ldrh	r3, [r6, #12]
    1b7c:	061a      	lsls	r2, r3, #24
    1b7e:	d410      	bmi.n	1ba2 <__swhatbuf_r+0x3e>
    1b80:	f44f 6380 	mov.w	r3, #1024	; 0x400
    1b84:	e00e      	b.n	1ba4 <__swhatbuf_r+0x40>
    1b86:	466a      	mov	r2, sp
    1b88:	f000 ff12 	bl	29b0 <_fstat_r>
    1b8c:	2800      	cmp	r0, #0
    1b8e:	dbf2      	blt.n	1b76 <__swhatbuf_r+0x12>
    1b90:	9a01      	ldr	r2, [sp, #4]
    1b92:	f402 4270 	and.w	r2, r2, #61440	; 0xf000
    1b96:	f5a2 5300 	sub.w	r3, r2, #8192	; 0x2000
    1b9a:	425a      	negs	r2, r3
    1b9c:	415a      	adcs	r2, r3
    1b9e:	602a      	str	r2, [r5, #0]
    1ba0:	e7ee      	b.n	1b80 <__swhatbuf_r+0x1c>
    1ba2:	2340      	movs	r3, #64	; 0x40
    1ba4:	2000      	movs	r0, #0
    1ba6:	6023      	str	r3, [r4, #0]
    1ba8:	b016      	add	sp, #88	; 0x58
    1baa:	bd70      	pop	{r4, r5, r6, pc}

00001bac <__smakebuf_r>:
    1bac:	898b      	ldrh	r3, [r1, #12]
    1bae:	b573      	push	{r0, r1, r4, r5, r6, lr}
    1bb0:	079d      	lsls	r5, r3, #30
    1bb2:	4606      	mov	r6, r0
    1bb4:	460c      	mov	r4, r1
    1bb6:	d507      	bpl.n	1bc8 <__smakebuf_r+0x1c>
    1bb8:	f104 0347 	add.w	r3, r4, #71	; 0x47
    1bbc:	6023      	str	r3, [r4, #0]
    1bbe:	6123      	str	r3, [r4, #16]
    1bc0:	2301      	movs	r3, #1
    1bc2:	6163      	str	r3, [r4, #20]
    1bc4:	b002      	add	sp, #8
    1bc6:	bd70      	pop	{r4, r5, r6, pc}
    1bc8:	ab01      	add	r3, sp, #4
    1bca:	466a      	mov	r2, sp
    1bcc:	f7ff ffca 	bl	1b64 <__swhatbuf_r>
    1bd0:	9900      	ldr	r1, [sp, #0]
    1bd2:	4605      	mov	r5, r0
    1bd4:	4630      	mov	r0, r6
    1bd6:	f7ff f85b 	bl	c90 <_malloc_r>
    1bda:	b948      	cbnz	r0, 1bf0 <__smakebuf_r+0x44>
    1bdc:	f9b4 300c 	ldrsh.w	r3, [r4, #12]
    1be0:	059a      	lsls	r2, r3, #22
    1be2:	d4ef      	bmi.n	1bc4 <__smakebuf_r+0x18>
    1be4:	f023 0303 	bic.w	r3, r3, #3
    1be8:	f043 0302 	orr.w	r3, r3, #2
    1bec:	81a3      	strh	r3, [r4, #12]
    1bee:	e7e3      	b.n	1bb8 <__smakebuf_r+0xc>
    1bf0:	4b0d      	ldr	r3, [pc, #52]	; (1c28 <__smakebuf_r+0x7c>)
    1bf2:	62b3      	str	r3, [r6, #40]	; 0x28
    1bf4:	89a3      	ldrh	r3, [r4, #12]
    1bf6:	6020      	str	r0, [r4, #0]
    1bf8:	f043 0380 	orr.w	r3, r3, #128	; 0x80
    1bfc:	81a3      	strh	r3, [r4, #12]
    1bfe:	9b00      	ldr	r3, [sp, #0]
    1c00:	6120      	str	r0, [r4, #16]
    1c02:	6163      	str	r3, [r4, #20]
    1c04:	9b01      	ldr	r3, [sp, #4]
    1c06:	b15b      	cbz	r3, 1c20 <__smakebuf_r+0x74>
    1c08:	f9b4 100e 	ldrsh.w	r1, [r4, #14]
    1c0c:	4630      	mov	r0, r6
    1c0e:	f000 fee1 	bl	29d4 <_isatty_r>
    1c12:	b128      	cbz	r0, 1c20 <__smakebuf_r+0x74>
    1c14:	89a3      	ldrh	r3, [r4, #12]
    1c16:	f023 0303 	bic.w	r3, r3, #3
    1c1a:	f043 0301 	orr.w	r3, r3, #1
    1c1e:	81a3      	strh	r3, [r4, #12]
    1c20:	89a3      	ldrh	r3, [r4, #12]
    1c22:	431d      	orrs	r5, r3
    1c24:	81a5      	strh	r5, [r4, #12]
    1c26:	e7cd      	b.n	1bc4 <__smakebuf_r+0x18>
    1c28:	0000097d 	andeq	r0, r0, sp, ror r9

00001c2c <memchr>:
    1c2c:	b2c9      	uxtb	r1, r1
    1c2e:	4402      	add	r2, r0
    1c30:	b510      	push	{r4, lr}
    1c32:	4290      	cmp	r0, r2
    1c34:	4603      	mov	r3, r0
    1c36:	d101      	bne.n	1c3c <memchr+0x10>
    1c38:	2300      	movs	r3, #0
    1c3a:	e003      	b.n	1c44 <memchr+0x18>
    1c3c:	781c      	ldrb	r4, [r3, #0]
    1c3e:	3001      	adds	r0, #1
    1c40:	428c      	cmp	r4, r1
    1c42:	d1f6      	bne.n	1c32 <memchr+0x6>
    1c44:	4618      	mov	r0, r3
    1c46:	bd10      	pop	{r4, pc}

00001c48 <memcpy>:
    1c48:	1e43      	subs	r3, r0, #1
    1c4a:	440a      	add	r2, r1
    1c4c:	b510      	push	{r4, lr}
    1c4e:	4291      	cmp	r1, r2
    1c50:	d100      	bne.n	1c54 <memcpy+0xc>
    1c52:	bd10      	pop	{r4, pc}
    1c54:	f811 4b01 	ldrb.w	r4, [r1], #1
    1c58:	f803 4f01 	strb.w	r4, [r3, #1]!
    1c5c:	e7f7      	b.n	1c4e <memcpy+0x6>

00001c5e <memmove>:
    1c5e:	4288      	cmp	r0, r1
    1c60:	eb01 0302 	add.w	r3, r1, r2
    1c64:	b510      	push	{r4, lr}
    1c66:	d807      	bhi.n	1c78 <memmove+0x1a>
    1c68:	1e42      	subs	r2, r0, #1
    1c6a:	4299      	cmp	r1, r3
    1c6c:	d00a      	beq.n	1c84 <memmove+0x26>
    1c6e:	f811 4b01 	ldrb.w	r4, [r1], #1
    1c72:	f802 4f01 	strb.w	r4, [r2, #1]!
    1c76:	e7f8      	b.n	1c6a <memmove+0xc>
    1c78:	4283      	cmp	r3, r0
    1c7a:	d9f5      	bls.n	1c68 <memmove+0xa>
    1c7c:	1881      	adds	r1, r0, r2
    1c7e:	1ad2      	subs	r2, r2, r3
    1c80:	42d3      	cmn	r3, r2
    1c82:	d100      	bne.n	1c86 <memmove+0x28>
    1c84:	bd10      	pop	{r4, pc}
    1c86:	f813 4d01 	ldrb.w	r4, [r3, #-1]!
    1c8a:	f801 4d01 	strb.w	r4, [r1, #-1]!
    1c8e:	e7f7      	b.n	1c80 <memmove+0x22>

00001c90 <__malloc_lock>:
    1c90:	4770      	bx	lr

00001c92 <__malloc_unlock>:
    1c92:	4770      	bx	lr

00001c94 <_realloc_r>:
    1c94:	b5f8      	push	{r3, r4, r5, r6, r7, lr}
    1c96:	4607      	mov	r7, r0
    1c98:	4614      	mov	r4, r2
    1c9a:	460e      	mov	r6, r1
    1c9c:	b921      	cbnz	r1, 1ca8 <_realloc_r+0x14>
    1c9e:	4611      	mov	r1, r2
    1ca0:	e8bd 40f8 	ldmia.w	sp!, {r3, r4, r5, r6, r7, lr}
    1ca4:	f7fe bff4 	b.w	c90 <_malloc_r>
    1ca8:	b922      	cbnz	r2, 1cb4 <_realloc_r+0x20>
    1caa:	f7fe ffa5 	bl	bf8 <_free_r>
    1cae:	4625      	mov	r5, r4
    1cb0:	4628      	mov	r0, r5
    1cb2:	bdf8      	pop	{r3, r4, r5, r6, r7, pc}
    1cb4:	f000 ff06 	bl	2ac4 <_malloc_usable_size_r>
    1cb8:	42a0      	cmp	r0, r4
    1cba:	d20f      	bcs.n	1cdc <_realloc_r+0x48>
    1cbc:	4621      	mov	r1, r4
    1cbe:	4638      	mov	r0, r7
    1cc0:	f7fe ffe6 	bl	c90 <_malloc_r>
    1cc4:	4605      	mov	r5, r0
    1cc6:	2800      	cmp	r0, #0
    1cc8:	d0f2      	beq.n	1cb0 <_realloc_r+0x1c>
    1cca:	4631      	mov	r1, r6
    1ccc:	4622      	mov	r2, r4
    1cce:	f7ff ffbb 	bl	1c48 <memcpy>
    1cd2:	4631      	mov	r1, r6
    1cd4:	4638      	mov	r0, r7
    1cd6:	f7fe ff8f 	bl	bf8 <_free_r>
    1cda:	e7e9      	b.n	1cb0 <_realloc_r+0x1c>
    1cdc:	4635      	mov	r5, r6
    1cde:	e7e7      	b.n	1cb0 <_realloc_r+0x1c>

00001ce0 <__svfiscanf_r>:
    1ce0:	e92d 4ff0 	stmdb	sp!, {r4, r5, r6, r7, r8, r9, sl, fp, lr}
    1ce4:	f5ad 7d23 	sub.w	sp, sp, #652	; 0x28c
    1ce8:	460c      	mov	r4, r1
    1cea:	2100      	movs	r1, #0
    1cec:	9144      	str	r1, [sp, #272]	; 0x110
    1cee:	4606      	mov	r6, r0
    1cf0:	9145      	str	r1, [sp, #276]	; 0x114
    1cf2:	4692      	mov	sl, r2
    1cf4:	499e      	ldr	r1, [pc, #632]	; (1f70 <__svfiscanf_r+0x290>)
    1cf6:	270a      	movs	r7, #10
    1cf8:	f8df 927c 	ldr.w	r9, [pc, #636]	; 1f78 <__svfiscanf_r+0x298>
    1cfc:	f10d 0804 	add.w	r8, sp, #4
    1d00:	9300      	str	r3, [sp, #0]
    1d02:	91a0      	str	r1, [sp, #640]	; 0x280
    1d04:	499b      	ldr	r1, [pc, #620]	; (1f74 <__svfiscanf_r+0x294>)
    1d06:	f8cd 8118 	str.w	r8, [sp, #280]	; 0x118
    1d0a:	91a1      	str	r1, [sp, #644]	; 0x284
    1d0c:	f89a 3000 	ldrb.w	r3, [sl]
    1d10:	2b00      	cmp	r3, #0
    1d12:	f000 812b 	beq.w	1f6c <__svfiscanf_r+0x28c>
    1d16:	f000 fe9b 	bl	2a50 <__locale_ctype_ptr>
    1d1a:	4655      	mov	r5, sl
    1d1c:	f815 bb01 	ldrb.w	fp, [r5], #1
    1d20:	4458      	add	r0, fp
    1d22:	7843      	ldrb	r3, [r0, #1]
    1d24:	f013 0308 	ands.w	r3, r3, #8
    1d28:	d01c      	beq.n	1d64 <__svfiscanf_r+0x84>
    1d2a:	6863      	ldr	r3, [r4, #4]
    1d2c:	2b00      	cmp	r3, #0
    1d2e:	dd12      	ble.n	1d56 <__svfiscanf_r+0x76>
    1d30:	f000 fe8e 	bl	2a50 <__locale_ctype_ptr>
    1d34:	6823      	ldr	r3, [r4, #0]
    1d36:	781a      	ldrb	r2, [r3, #0]
    1d38:	4410      	add	r0, r2
    1d3a:	7842      	ldrb	r2, [r0, #1]
    1d3c:	0712      	lsls	r2, r2, #28
    1d3e:	d401      	bmi.n	1d44 <__svfiscanf_r+0x64>
    1d40:	46aa      	mov	sl, r5
    1d42:	e7e3      	b.n	1d0c <__svfiscanf_r+0x2c>
    1d44:	9a45      	ldr	r2, [sp, #276]	; 0x114
    1d46:	3301      	adds	r3, #1
    1d48:	6023      	str	r3, [r4, #0]
    1d4a:	3201      	adds	r2, #1
    1d4c:	9245      	str	r2, [sp, #276]	; 0x114
    1d4e:	6862      	ldr	r2, [r4, #4]
    1d50:	3a01      	subs	r2, #1
    1d52:	6062      	str	r2, [r4, #4]
    1d54:	e7e9      	b.n	1d2a <__svfiscanf_r+0x4a>
    1d56:	9ba1      	ldr	r3, [sp, #644]	; 0x284
    1d58:	4621      	mov	r1, r4
    1d5a:	4630      	mov	r0, r6
    1d5c:	4798      	blx	r3
    1d5e:	2800      	cmp	r0, #0
    1d60:	d0e6      	beq.n	1d30 <__svfiscanf_r+0x50>
    1d62:	e7ed      	b.n	1d40 <__svfiscanf_r+0x60>
    1d64:	f1bb 0f25 	cmp.w	fp, #37	; 0x25
    1d68:	f040 8082 	bne.w	1e70 <__svfiscanf_r+0x190>
    1d6c:	9343      	str	r3, [sp, #268]	; 0x10c
    1d6e:	9341      	str	r3, [sp, #260]	; 0x104
    1d70:	f89a 3001 	ldrb.w	r3, [sl, #1]
    1d74:	2b2a      	cmp	r3, #42	; 0x2a
    1d76:	d103      	bne.n	1d80 <__svfiscanf_r+0xa0>
    1d78:	f10a 0502 	add.w	r5, sl, #2
    1d7c:	2310      	movs	r3, #16
    1d7e:	9341      	str	r3, [sp, #260]	; 0x104
    1d80:	46aa      	mov	sl, r5
    1d82:	f815 1b01 	ldrb.w	r1, [r5], #1
    1d86:	f1a1 0230 	sub.w	r2, r1, #48	; 0x30
    1d8a:	2a09      	cmp	r2, #9
    1d8c:	d922      	bls.n	1dd4 <__svfiscanf_r+0xf4>
    1d8e:	2203      	movs	r2, #3
    1d90:	4879      	ldr	r0, [pc, #484]	; (1f78 <__svfiscanf_r+0x298>)
    1d92:	f7ff ff4b 	bl	1c2c <memchr>
    1d96:	b138      	cbz	r0, 1da8 <__svfiscanf_r+0xc8>
    1d98:	eba0 0309 	sub.w	r3, r0, r9
    1d9c:	2001      	movs	r0, #1
    1d9e:	4098      	lsls	r0, r3
    1da0:	9b41      	ldr	r3, [sp, #260]	; 0x104
    1da2:	46aa      	mov	sl, r5
    1da4:	4318      	orrs	r0, r3
    1da6:	9041      	str	r0, [sp, #260]	; 0x104
    1da8:	f89a 3000 	ldrb.w	r3, [sl]
    1dac:	f10a 0501 	add.w	r5, sl, #1
    1db0:	2b67      	cmp	r3, #103	; 0x67
    1db2:	d82b      	bhi.n	1e0c <__svfiscanf_r+0x12c>
    1db4:	2b65      	cmp	r3, #101	; 0x65
    1db6:	f080 80a0 	bcs.w	1efa <__svfiscanf_r+0x21a>
    1dba:	2b47      	cmp	r3, #71	; 0x47
    1dbc:	d810      	bhi.n	1de0 <__svfiscanf_r+0x100>
    1dbe:	2b45      	cmp	r3, #69	; 0x45
    1dc0:	f080 809b 	bcs.w	1efa <__svfiscanf_r+0x21a>
    1dc4:	2b00      	cmp	r3, #0
    1dc6:	d06c      	beq.n	1ea2 <__svfiscanf_r+0x1c2>
    1dc8:	2b25      	cmp	r3, #37	; 0x25
    1dca:	d051      	beq.n	1e70 <__svfiscanf_r+0x190>
    1dcc:	2303      	movs	r3, #3
    1dce:	9742      	str	r7, [sp, #264]	; 0x108
    1dd0:	9347      	str	r3, [sp, #284]	; 0x11c
    1dd2:	e027      	b.n	1e24 <__svfiscanf_r+0x144>
    1dd4:	9b43      	ldr	r3, [sp, #268]	; 0x10c
    1dd6:	fb07 1303 	mla	r3, r7, r3, r1
    1dda:	3b30      	subs	r3, #48	; 0x30
    1ddc:	9343      	str	r3, [sp, #268]	; 0x10c
    1dde:	e7cf      	b.n	1d80 <__svfiscanf_r+0xa0>
    1de0:	2b5b      	cmp	r3, #91	; 0x5b
    1de2:	d06a      	beq.n	1eba <__svfiscanf_r+0x1da>
    1de4:	d80c      	bhi.n	1e00 <__svfiscanf_r+0x120>
    1de6:	2b58      	cmp	r3, #88	; 0x58
    1de8:	d1f0      	bne.n	1dcc <__svfiscanf_r+0xec>
    1dea:	9a41      	ldr	r2, [sp, #260]	; 0x104
    1dec:	f442 7200 	orr.w	r2, r2, #512	; 0x200
    1df0:	9241      	str	r2, [sp, #260]	; 0x104
    1df2:	2210      	movs	r2, #16
    1df4:	9242      	str	r2, [sp, #264]	; 0x108
    1df6:	2b6e      	cmp	r3, #110	; 0x6e
    1df8:	bf8c      	ite	hi
    1dfa:	2304      	movhi	r3, #4
    1dfc:	2303      	movls	r3, #3
    1dfe:	e010      	b.n	1e22 <__svfiscanf_r+0x142>
    1e00:	2b63      	cmp	r3, #99	; 0x63
    1e02:	d065      	beq.n	1ed0 <__svfiscanf_r+0x1f0>
    1e04:	2b64      	cmp	r3, #100	; 0x64
    1e06:	d1e1      	bne.n	1dcc <__svfiscanf_r+0xec>
    1e08:	9742      	str	r7, [sp, #264]	; 0x108
    1e0a:	e7f4      	b.n	1df6 <__svfiscanf_r+0x116>
    1e0c:	2b70      	cmp	r3, #112	; 0x70
    1e0e:	d04b      	beq.n	1ea8 <__svfiscanf_r+0x1c8>
    1e10:	d826      	bhi.n	1e60 <__svfiscanf_r+0x180>
    1e12:	2b6e      	cmp	r3, #110	; 0x6e
    1e14:	d062      	beq.n	1edc <__svfiscanf_r+0x1fc>
    1e16:	d84c      	bhi.n	1eb2 <__svfiscanf_r+0x1d2>
    1e18:	2b69      	cmp	r3, #105	; 0x69
    1e1a:	d1d7      	bne.n	1dcc <__svfiscanf_r+0xec>
    1e1c:	2300      	movs	r3, #0
    1e1e:	9342      	str	r3, [sp, #264]	; 0x108
    1e20:	2303      	movs	r3, #3
    1e22:	9347      	str	r3, [sp, #284]	; 0x11c
    1e24:	6863      	ldr	r3, [r4, #4]
    1e26:	2b00      	cmp	r3, #0
    1e28:	dd69      	ble.n	1efe <__svfiscanf_r+0x21e>
    1e2a:	9b41      	ldr	r3, [sp, #260]	; 0x104
    1e2c:	0659      	lsls	r1, r3, #25
    1e2e:	d407      	bmi.n	1e40 <__svfiscanf_r+0x160>
    1e30:	f000 fe0e 	bl	2a50 <__locale_ctype_ptr>
    1e34:	6823      	ldr	r3, [r4, #0]
    1e36:	781a      	ldrb	r2, [r3, #0]
    1e38:	4410      	add	r0, r2
    1e3a:	7842      	ldrb	r2, [r0, #1]
    1e3c:	0712      	lsls	r2, r2, #28
    1e3e:	d465      	bmi.n	1f0c <__svfiscanf_r+0x22c>
    1e40:	9b47      	ldr	r3, [sp, #284]	; 0x11c
    1e42:	2b02      	cmp	r3, #2
    1e44:	dc74      	bgt.n	1f30 <__svfiscanf_r+0x250>
    1e46:	466b      	mov	r3, sp
    1e48:	4622      	mov	r2, r4
    1e4a:	a941      	add	r1, sp, #260	; 0x104
    1e4c:	4630      	mov	r0, r6
    1e4e:	f000 f8f5 	bl	203c <_scanf_chars>
    1e52:	2801      	cmp	r0, #1
    1e54:	f000 808a 	beq.w	1f6c <__svfiscanf_r+0x28c>
    1e58:	2802      	cmp	r0, #2
    1e5a:	f47f af71 	bne.w	1d40 <__svfiscanf_r+0x60>
    1e5e:	e01d      	b.n	1e9c <__svfiscanf_r+0x1bc>
    1e60:	2b75      	cmp	r3, #117	; 0x75
    1e62:	d0d1      	beq.n	1e08 <__svfiscanf_r+0x128>
    1e64:	2b78      	cmp	r3, #120	; 0x78
    1e66:	d0c0      	beq.n	1dea <__svfiscanf_r+0x10a>
    1e68:	2b73      	cmp	r3, #115	; 0x73
    1e6a:	d1af      	bne.n	1dcc <__svfiscanf_r+0xec>
    1e6c:	2302      	movs	r3, #2
    1e6e:	e7d8      	b.n	1e22 <__svfiscanf_r+0x142>
    1e70:	6863      	ldr	r3, [r4, #4]
    1e72:	2b00      	cmp	r3, #0
    1e74:	dd0c      	ble.n	1e90 <__svfiscanf_r+0x1b0>
    1e76:	6823      	ldr	r3, [r4, #0]
    1e78:	781a      	ldrb	r2, [r3, #0]
    1e7a:	455a      	cmp	r2, fp
    1e7c:	d176      	bne.n	1f6c <__svfiscanf_r+0x28c>
    1e7e:	6862      	ldr	r2, [r4, #4]
    1e80:	3301      	adds	r3, #1
    1e82:	6023      	str	r3, [r4, #0]
    1e84:	9b45      	ldr	r3, [sp, #276]	; 0x114
    1e86:	3a01      	subs	r2, #1
    1e88:	6062      	str	r2, [r4, #4]
    1e8a:	3301      	adds	r3, #1
    1e8c:	9345      	str	r3, [sp, #276]	; 0x114
    1e8e:	e757      	b.n	1d40 <__svfiscanf_r+0x60>
    1e90:	9ba1      	ldr	r3, [sp, #644]	; 0x284
    1e92:	4621      	mov	r1, r4
    1e94:	4630      	mov	r0, r6
    1e96:	4798      	blx	r3
    1e98:	2800      	cmp	r0, #0
    1e9a:	d0ec      	beq.n	1e76 <__svfiscanf_r+0x196>
    1e9c:	9844      	ldr	r0, [sp, #272]	; 0x110
    1e9e:	2800      	cmp	r0, #0
    1ea0:	d15a      	bne.n	1f58 <__svfiscanf_r+0x278>
    1ea2:	f04f 30ff 	mov.w	r0, #4294967295
    1ea6:	e05d      	b.n	1f64 <__svfiscanf_r+0x284>
    1ea8:	9a41      	ldr	r2, [sp, #260]	; 0x104
    1eaa:	f042 0220 	orr.w	r2, r2, #32
    1eae:	9241      	str	r2, [sp, #260]	; 0x104
    1eb0:	e79b      	b.n	1dea <__svfiscanf_r+0x10a>
    1eb2:	2308      	movs	r3, #8
    1eb4:	9342      	str	r3, [sp, #264]	; 0x108
    1eb6:	2304      	movs	r3, #4
    1eb8:	e7b3      	b.n	1e22 <__svfiscanf_r+0x142>
    1eba:	4629      	mov	r1, r5
    1ebc:	4640      	mov	r0, r8
    1ebe:	f000 fb23 	bl	2508 <__sccl>
    1ec2:	9b41      	ldr	r3, [sp, #260]	; 0x104
    1ec4:	f043 0340 	orr.w	r3, r3, #64	; 0x40
    1ec8:	9341      	str	r3, [sp, #260]	; 0x104
    1eca:	2301      	movs	r3, #1
    1ecc:	4605      	mov	r5, r0
    1ece:	e7a8      	b.n	1e22 <__svfiscanf_r+0x142>
    1ed0:	9b41      	ldr	r3, [sp, #260]	; 0x104
    1ed2:	f043 0340 	orr.w	r3, r3, #64	; 0x40
    1ed6:	9341      	str	r3, [sp, #260]	; 0x104
    1ed8:	2300      	movs	r3, #0
    1eda:	e7a2      	b.n	1e22 <__svfiscanf_r+0x142>
    1edc:	9841      	ldr	r0, [sp, #260]	; 0x104
    1ede:	06c3      	lsls	r3, r0, #27
    1ee0:	f53f af2e 	bmi.w	1d40 <__svfiscanf_r+0x60>
    1ee4:	9b00      	ldr	r3, [sp, #0]
    1ee6:	07c0      	lsls	r0, r0, #31
    1ee8:	9a45      	ldr	r2, [sp, #276]	; 0x114
    1eea:	f103 0104 	add.w	r1, r3, #4
    1eee:	9100      	str	r1, [sp, #0]
    1ef0:	681b      	ldr	r3, [r3, #0]
    1ef2:	bf4c      	ite	mi
    1ef4:	801a      	strhmi	r2, [r3, #0]
    1ef6:	601a      	strpl	r2, [r3, #0]
    1ef8:	e722      	b.n	1d40 <__svfiscanf_r+0x60>
    1efa:	2305      	movs	r3, #5
    1efc:	e791      	b.n	1e22 <__svfiscanf_r+0x142>
    1efe:	9ba1      	ldr	r3, [sp, #644]	; 0x284
    1f00:	4621      	mov	r1, r4
    1f02:	4630      	mov	r0, r6
    1f04:	4798      	blx	r3
    1f06:	2800      	cmp	r0, #0
    1f08:	d08f      	beq.n	1e2a <__svfiscanf_r+0x14a>
    1f0a:	e7c7      	b.n	1e9c <__svfiscanf_r+0x1bc>
    1f0c:	9a45      	ldr	r2, [sp, #276]	; 0x114
    1f0e:	3201      	adds	r2, #1
    1f10:	9245      	str	r2, [sp, #276]	; 0x114
    1f12:	6862      	ldr	r2, [r4, #4]
    1f14:	3a01      	subs	r2, #1
    1f16:	6062      	str	r2, [r4, #4]
    1f18:	2a00      	cmp	r2, #0
    1f1a:	dd02      	ble.n	1f22 <__svfiscanf_r+0x242>
    1f1c:	3301      	adds	r3, #1
    1f1e:	6023      	str	r3, [r4, #0]
    1f20:	e786      	b.n	1e30 <__svfiscanf_r+0x150>
    1f22:	9ba1      	ldr	r3, [sp, #644]	; 0x284
    1f24:	4621      	mov	r1, r4
    1f26:	4630      	mov	r0, r6
    1f28:	4798      	blx	r3
    1f2a:	2800      	cmp	r0, #0
    1f2c:	d080      	beq.n	1e30 <__svfiscanf_r+0x150>
    1f2e:	e7b5      	b.n	1e9c <__svfiscanf_r+0x1bc>
    1f30:	2b04      	cmp	r3, #4
    1f32:	dc06      	bgt.n	1f42 <__svfiscanf_r+0x262>
    1f34:	466b      	mov	r3, sp
    1f36:	4622      	mov	r2, r4
    1f38:	a941      	add	r1, sp, #260	; 0x104
    1f3a:	4630      	mov	r0, r6
    1f3c:	f000 f8dc 	bl	20f8 <_scanf_i>
    1f40:	e787      	b.n	1e52 <__svfiscanf_r+0x172>
    1f42:	4b0e      	ldr	r3, [pc, #56]	; (1f7c <__svfiscanf_r+0x29c>)
    1f44:	2b00      	cmp	r3, #0
    1f46:	f43f aefb 	beq.w	1d40 <__svfiscanf_r+0x60>
    1f4a:	466b      	mov	r3, sp
    1f4c:	4622      	mov	r2, r4
    1f4e:	a941      	add	r1, sp, #260	; 0x104
    1f50:	4630      	mov	r0, r6
    1f52:	f3af 8000 	nop.w
    1f56:	e77c      	b.n	1e52 <__svfiscanf_r+0x172>
    1f58:	89a3      	ldrh	r3, [r4, #12]
    1f5a:	f013 0f40 	tst.w	r3, #64	; 0x40
    1f5e:	bf18      	it	ne
    1f60:	f04f 30ff 	movne.w	r0, #4294967295
    1f64:	f50d 7d23 	add.w	sp, sp, #652	; 0x28c
    1f68:	e8bd 8ff0 	ldmia.w	sp!, {r4, r5, r6, r7, r8, r9, sl, fp, pc}
    1f6c:	9844      	ldr	r0, [sp, #272]	; 0x110
    1f6e:	e7f9      	b.n	1f64 <__svfiscanf_r+0x284>
    1f70:	000028bd 			; <UNDEFINED> instruction: 0x000028bd
    1f74:	000023f1 	strdeq	r2, [r0], -r1
    1f78:	000035ae 	andeq	r3, r0, lr, lsr #11
    1f7c:	00000000 	andeq	r0, r0, r0

00001f80 <vfiscanf>:
    1f80:	e92d 41f0 	stmdb	sp!, {r4, r5, r6, r7, r8, lr}
    1f84:	4604      	mov	r4, r0
    1f86:	4e10      	ldr	r6, [pc, #64]	; (1fc8 <vfiscanf+0x48>)
    1f88:	460f      	mov	r7, r1
    1f8a:	4690      	mov	r8, r2
    1f8c:	6835      	ldr	r5, [r6, #0]
    1f8e:	b125      	cbz	r5, 1f9a <vfiscanf+0x1a>
    1f90:	69ab      	ldr	r3, [r5, #24]
    1f92:	b913      	cbnz	r3, 1f9a <vfiscanf+0x1a>
    1f94:	4628      	mov	r0, r5
    1f96:	f7fe fd15 	bl	9c4 <__sinit>
    1f9a:	4b0c      	ldr	r3, [pc, #48]	; (1fcc <vfiscanf+0x4c>)
    1f9c:	429c      	cmp	r4, r3
    1f9e:	d108      	bne.n	1fb2 <vfiscanf+0x32>
    1fa0:	686c      	ldr	r4, [r5, #4]
    1fa2:	4643      	mov	r3, r8
    1fa4:	463a      	mov	r2, r7
    1fa6:	4621      	mov	r1, r4
    1fa8:	6830      	ldr	r0, [r6, #0]
    1faa:	e8bd 41f0 	ldmia.w	sp!, {r4, r5, r6, r7, r8, lr}
    1fae:	f7ff be97 	b.w	1ce0 <__svfiscanf_r>
    1fb2:	4b07      	ldr	r3, [pc, #28]	; (1fd0 <vfiscanf+0x50>)
    1fb4:	429c      	cmp	r4, r3
    1fb6:	d101      	bne.n	1fbc <vfiscanf+0x3c>
    1fb8:	68ac      	ldr	r4, [r5, #8]
    1fba:	e7f2      	b.n	1fa2 <vfiscanf+0x22>
    1fbc:	4b05      	ldr	r3, [pc, #20]	; (1fd4 <vfiscanf+0x54>)
    1fbe:	429c      	cmp	r4, r3
    1fc0:	bf08      	it	eq
    1fc2:	68ec      	ldreq	r4, [r5, #12]
    1fc4:	e7ed      	b.n	1fa2 <vfiscanf+0x22>
    1fc6:	bf00      	nop
    1fc8:	00003168 	andeq	r3, r0, r8, ror #2
    1fcc:	00003564 	andeq	r3, r0, r4, ror #10
    1fd0:	00003584 	andeq	r3, r0, r4, lsl #11
    1fd4:	00003544 	andeq	r3, r0, r4, asr #10

00001fd8 <__svfscanf>:
    1fd8:	4613      	mov	r3, r2
    1fda:	460a      	mov	r2, r1
    1fdc:	4601      	mov	r1, r0
    1fde:	4802      	ldr	r0, [pc, #8]	; (1fe8 <__svfscanf+0x10>)
    1fe0:	6800      	ldr	r0, [r0, #0]
    1fe2:	f7ff be7d 	b.w	1ce0 <__svfiscanf_r>
    1fe6:	bf00      	nop
    1fe8:	00003168 	andeq	r3, r0, r8, ror #2

00001fec <_vfiscanf_r>:
    1fec:	e92d 41f0 	stmdb	sp!, {r4, r5, r6, r7, r8, lr}
    1ff0:	460c      	mov	r4, r1
    1ff2:	4616      	mov	r6, r2
    1ff4:	461f      	mov	r7, r3
    1ff6:	4605      	mov	r5, r0
    1ff8:	b118      	cbz	r0, 2002 <_vfiscanf_r+0x16>
    1ffa:	6983      	ldr	r3, [r0, #24]
    1ffc:	b90b      	cbnz	r3, 2002 <_vfiscanf_r+0x16>
    1ffe:	f7fe fce1 	bl	9c4 <__sinit>
    2002:	4b0b      	ldr	r3, [pc, #44]	; (2030 <_vfiscanf_r+0x44>)
    2004:	429c      	cmp	r4, r3
    2006:	d108      	bne.n	201a <_vfiscanf_r+0x2e>
    2008:	686c      	ldr	r4, [r5, #4]
    200a:	463b      	mov	r3, r7
    200c:	4632      	mov	r2, r6
    200e:	4621      	mov	r1, r4
    2010:	4628      	mov	r0, r5
    2012:	e8bd 41f0 	ldmia.w	sp!, {r4, r5, r6, r7, r8, lr}
    2016:	f7ff be63 	b.w	1ce0 <__svfiscanf_r>
    201a:	4b06      	ldr	r3, [pc, #24]	; (2034 <_vfiscanf_r+0x48>)
    201c:	429c      	cmp	r4, r3
    201e:	d101      	bne.n	2024 <_vfiscanf_r+0x38>
    2020:	68ac      	ldr	r4, [r5, #8]
    2022:	e7f2      	b.n	200a <_vfiscanf_r+0x1e>
    2024:	4b04      	ldr	r3, [pc, #16]	; (2038 <_vfiscanf_r+0x4c>)
    2026:	429c      	cmp	r4, r3
    2028:	bf08      	it	eq
    202a:	68ec      	ldreq	r4, [r5, #12]
    202c:	e7ed      	b.n	200a <_vfiscanf_r+0x1e>
    202e:	bf00      	nop
    2030:	00003564 	andeq	r3, r0, r4, ror #10
    2034:	00003584 	andeq	r3, r0, r4, lsl #11
    2038:	00003544 	andeq	r3, r0, r4, asr #10

0000203c <_scanf_chars>:
    203c:	e92d 41f0 	stmdb	sp!, {r4, r5, r6, r7, r8, lr}
    2040:	4615      	mov	r5, r2
    2042:	688a      	ldr	r2, [r1, #8]
    2044:	4680      	mov	r8, r0
    2046:	460c      	mov	r4, r1
    2048:	b932      	cbnz	r2, 2058 <_scanf_chars+0x1c>
    204a:	698a      	ldr	r2, [r1, #24]
    204c:	2a00      	cmp	r2, #0
    204e:	bf14      	ite	ne
    2050:	f04f 32ff 	movne.w	r2, #4294967295
    2054:	2201      	moveq	r2, #1
    2056:	608a      	str	r2, [r1, #8]
    2058:	6822      	ldr	r2, [r4, #0]
    205a:	2600      	movs	r6, #0
    205c:	06d1      	lsls	r1, r2, #27
    205e:	bf5f      	itttt	pl
    2060:	681a      	ldrpl	r2, [r3, #0]
    2062:	1d11      	addpl	r1, r2, #4
    2064:	6019      	strpl	r1, [r3, #0]
    2066:	6817      	ldrpl	r7, [r2, #0]
    2068:	69a3      	ldr	r3, [r4, #24]
    206a:	b1d3      	cbz	r3, 20a2 <_scanf_chars+0x66>
    206c:	2b01      	cmp	r3, #1
    206e:	d107      	bne.n	2080 <_scanf_chars+0x44>
    2070:	682b      	ldr	r3, [r5, #0]
    2072:	6962      	ldr	r2, [r4, #20]
    2074:	781b      	ldrb	r3, [r3, #0]
    2076:	5cd3      	ldrb	r3, [r2, r3]
    2078:	b99b      	cbnz	r3, 20a2 <_scanf_chars+0x66>
    207a:	2e00      	cmp	r6, #0
    207c:	d12c      	bne.n	20d8 <_scanf_chars+0x9c>
    207e:	e005      	b.n	208c <_scanf_chars+0x50>
    2080:	2b02      	cmp	r3, #2
    2082:	d006      	beq.n	2092 <_scanf_chars+0x56>
    2084:	bb46      	cbnz	r6, 20d8 <_scanf_chars+0x9c>
    2086:	69a3      	ldr	r3, [r4, #24]
    2088:	2b01      	cmp	r3, #1
    208a:	d125      	bne.n	20d8 <_scanf_chars+0x9c>
    208c:	2001      	movs	r0, #1
    208e:	e8bd 81f0 	ldmia.w	sp!, {r4, r5, r6, r7, r8, pc}
    2092:	f000 fcdd 	bl	2a50 <__locale_ctype_ptr>
    2096:	682b      	ldr	r3, [r5, #0]
    2098:	781b      	ldrb	r3, [r3, #0]
    209a:	4418      	add	r0, r3
    209c:	7843      	ldrb	r3, [r0, #1]
    209e:	071b      	lsls	r3, r3, #28
    20a0:	d4f0      	bmi.n	2084 <_scanf_chars+0x48>
    20a2:	6823      	ldr	r3, [r4, #0]
    20a4:	3601      	adds	r6, #1
    20a6:	06da      	lsls	r2, r3, #27
    20a8:	bf5f      	itttt	pl
    20aa:	682b      	ldrpl	r3, [r5, #0]
    20ac:	781b      	ldrbpl	r3, [r3, #0]
    20ae:	703b      	strbpl	r3, [r7, #0]
    20b0:	3701      	addpl	r7, #1
    20b2:	682a      	ldr	r2, [r5, #0]
    20b4:	686b      	ldr	r3, [r5, #4]
    20b6:	3201      	adds	r2, #1
    20b8:	602a      	str	r2, [r5, #0]
    20ba:	68a2      	ldr	r2, [r4, #8]
    20bc:	3b01      	subs	r3, #1
    20be:	606b      	str	r3, [r5, #4]
    20c0:	3a01      	subs	r2, #1
    20c2:	60a2      	str	r2, [r4, #8]
    20c4:	b142      	cbz	r2, 20d8 <_scanf_chars+0x9c>
    20c6:	2b00      	cmp	r3, #0
    20c8:	dcce      	bgt.n	2068 <_scanf_chars+0x2c>
    20ca:	f8d4 3180 	ldr.w	r3, [r4, #384]	; 0x180
    20ce:	4629      	mov	r1, r5
    20d0:	4640      	mov	r0, r8
    20d2:	4798      	blx	r3
    20d4:	2800      	cmp	r0, #0
    20d6:	d0c7      	beq.n	2068 <_scanf_chars+0x2c>
    20d8:	6823      	ldr	r3, [r4, #0]
    20da:	f013 0310 	ands.w	r3, r3, #16
    20de:	d105      	bne.n	20ec <_scanf_chars+0xb0>
    20e0:	68e2      	ldr	r2, [r4, #12]
    20e2:	3201      	adds	r2, #1
    20e4:	60e2      	str	r2, [r4, #12]
    20e6:	69a2      	ldr	r2, [r4, #24]
    20e8:	b102      	cbz	r2, 20ec <_scanf_chars+0xb0>
    20ea:	703b      	strb	r3, [r7, #0]
    20ec:	6923      	ldr	r3, [r4, #16]
    20ee:	2000      	movs	r0, #0
    20f0:	441e      	add	r6, r3
    20f2:	6126      	str	r6, [r4, #16]
    20f4:	e7cb      	b.n	208e <_scanf_chars+0x52>
	...

000020f8 <_scanf_i>:
    20f8:	e92d 4ff0 	stmdb	sp!, {r4, r5, r6, r7, r8, r9, sl, fp, lr}
    20fc:	469a      	mov	sl, r3
    20fe:	4b75      	ldr	r3, [pc, #468]	; (22d4 <_scanf_i+0x1dc>)
    2100:	460c      	mov	r4, r1
    2102:	4683      	mov	fp, r0
    2104:	4616      	mov	r6, r2
    2106:	b087      	sub	sp, #28
    2108:	68a7      	ldr	r7, [r4, #8]
    210a:	e893 0007 	ldmia.w	r3, {r0, r1, r2}
    210e:	ab03      	add	r3, sp, #12
    2110:	f104 091c 	add.w	r9, r4, #28
    2114:	f04f 0800 	mov.w	r8, #0
    2118:	e883 0007 	stmia.w	r3, {r0, r1, r2}
    211c:	4b6e      	ldr	r3, [pc, #440]	; (22d8 <_scanf_i+0x1e0>)
    211e:	69a1      	ldr	r1, [r4, #24]
    2120:	4a6e      	ldr	r2, [pc, #440]	; (22dc <_scanf_i+0x1e4>)
    2122:	2903      	cmp	r1, #3
    2124:	bf08      	it	eq
    2126:	461a      	moveq	r2, r3
    2128:	1e7b      	subs	r3, r7, #1
    212a:	f5b3 7fae 	cmp.w	r3, #348	; 0x15c
    212e:	9200      	str	r2, [sp, #0]
    2130:	bf84      	itt	hi
    2132:	f240 135d 	movwhi	r3, #349	; 0x15d
    2136:	60a3      	strhi	r3, [r4, #8]
    2138:	6823      	ldr	r3, [r4, #0]
    213a:	bf86      	itte	hi
    213c:	f46f 75ae 	mvnhi.w	r5, #348	; 0x15c
    2140:	197f      	addhi	r7, r7, r5
    2142:	2700      	movls	r7, #0
    2144:	f443 6350 	orr.w	r3, r3, #3328	; 0xd00
    2148:	6023      	str	r3, [r4, #0]
    214a:	464b      	mov	r3, r9
    214c:	6831      	ldr	r1, [r6, #0]
    214e:	2202      	movs	r2, #2
    2150:	9301      	str	r3, [sp, #4]
    2152:	ab03      	add	r3, sp, #12
    2154:	7809      	ldrb	r1, [r1, #0]
    2156:	f853 0028 	ldr.w	r0, [r3, r8, lsl #2]
    215a:	f7ff fd67 	bl	1c2c <memchr>
    215e:	9b01      	ldr	r3, [sp, #4]
    2160:	b330      	cbz	r0, 21b0 <_scanf_i+0xb8>
    2162:	f1b8 0f01 	cmp.w	r8, #1
    2166:	d15a      	bne.n	221e <_scanf_i+0x126>
    2168:	6862      	ldr	r2, [r4, #4]
    216a:	b92a      	cbnz	r2, 2178 <_scanf_i+0x80>
    216c:	6822      	ldr	r2, [r4, #0]
    216e:	2108      	movs	r1, #8
    2170:	6061      	str	r1, [r4, #4]
    2172:	f442 7200 	orr.w	r2, r2, #512	; 0x200
    2176:	6022      	str	r2, [r4, #0]
    2178:	6822      	ldr	r2, [r4, #0]
    217a:	f422 62a0 	bic.w	r2, r2, #1280	; 0x500
    217e:	6022      	str	r2, [r4, #0]
    2180:	68a2      	ldr	r2, [r4, #8]
    2182:	1e51      	subs	r1, r2, #1
    2184:	60a1      	str	r1, [r4, #8]
    2186:	b19a      	cbz	r2, 21b0 <_scanf_i+0xb8>
    2188:	6832      	ldr	r2, [r6, #0]
    218a:	1c5d      	adds	r5, r3, #1
    218c:	1c51      	adds	r1, r2, #1
    218e:	6031      	str	r1, [r6, #0]
    2190:	7812      	ldrb	r2, [r2, #0]
    2192:	701a      	strb	r2, [r3, #0]
    2194:	6873      	ldr	r3, [r6, #4]
    2196:	3b01      	subs	r3, #1
    2198:	6073      	str	r3, [r6, #4]
    219a:	2b00      	cmp	r3, #0
    219c:	dc07      	bgt.n	21ae <_scanf_i+0xb6>
    219e:	f8d4 3180 	ldr.w	r3, [r4, #384]	; 0x180
    21a2:	4631      	mov	r1, r6
    21a4:	4658      	mov	r0, fp
    21a6:	4798      	blx	r3
    21a8:	2800      	cmp	r0, #0
    21aa:	f040 8088 	bne.w	22be <_scanf_i+0x1c6>
    21ae:	462b      	mov	r3, r5
    21b0:	f108 0801 	add.w	r8, r8, #1
    21b4:	f1b8 0f03 	cmp.w	r8, #3
    21b8:	d1c8      	bne.n	214c <_scanf_i+0x54>
    21ba:	6862      	ldr	r2, [r4, #4]
    21bc:	b90a      	cbnz	r2, 21c2 <_scanf_i+0xca>
    21be:	220a      	movs	r2, #10
    21c0:	6062      	str	r2, [r4, #4]
    21c2:	6862      	ldr	r2, [r4, #4]
    21c4:	f04f 0800 	mov.w	r8, #0
    21c8:	4945      	ldr	r1, [pc, #276]	; (22e0 <_scanf_i+0x1e8>)
    21ca:	6960      	ldr	r0, [r4, #20]
    21cc:	1a89      	subs	r1, r1, r2
    21ce:	9301      	str	r3, [sp, #4]
    21d0:	f000 f99a 	bl	2508 <__sccl>
    21d4:	9b01      	ldr	r3, [sp, #4]
    21d6:	461d      	mov	r5, r3
    21d8:	68a3      	ldr	r3, [r4, #8]
    21da:	6822      	ldr	r2, [r4, #0]
    21dc:	2b00      	cmp	r3, #0
    21de:	d03b      	beq.n	2258 <_scanf_i+0x160>
    21e0:	6831      	ldr	r1, [r6, #0]
    21e2:	6960      	ldr	r0, [r4, #20]
    21e4:	f891 c000 	ldrb.w	ip, [r1]
    21e8:	f810 000c 	ldrb.w	r0, [r0, ip]
    21ec:	2800      	cmp	r0, #0
    21ee:	d033      	beq.n	2258 <_scanf_i+0x160>
    21f0:	f1bc 0f30 	cmp.w	ip, #48	; 0x30
    21f4:	d121      	bne.n	223a <_scanf_i+0x142>
    21f6:	0510      	lsls	r0, r2, #20
    21f8:	d51f      	bpl.n	223a <_scanf_i+0x142>
    21fa:	f108 0801 	add.w	r8, r8, #1
    21fe:	b117      	cbz	r7, 2206 <_scanf_i+0x10e>
    2200:	3f01      	subs	r7, #1
    2202:	3301      	adds	r3, #1
    2204:	60a3      	str	r3, [r4, #8]
    2206:	6873      	ldr	r3, [r6, #4]
    2208:	3b01      	subs	r3, #1
    220a:	6073      	str	r3, [r6, #4]
    220c:	2b00      	cmp	r3, #0
    220e:	dd1c      	ble.n	224a <_scanf_i+0x152>
    2210:	6833      	ldr	r3, [r6, #0]
    2212:	3301      	adds	r3, #1
    2214:	6033      	str	r3, [r6, #0]
    2216:	68a3      	ldr	r3, [r4, #8]
    2218:	3b01      	subs	r3, #1
    221a:	60a3      	str	r3, [r4, #8]
    221c:	e7dc      	b.n	21d8 <_scanf_i+0xe0>
    221e:	f1b8 0f02 	cmp.w	r8, #2
    2222:	d1ad      	bne.n	2180 <_scanf_i+0x88>
    2224:	6822      	ldr	r2, [r4, #0]
    2226:	f402 61c0 	and.w	r1, r2, #1536	; 0x600
    222a:	f5b1 7f00 	cmp.w	r1, #512	; 0x200
    222e:	d1bf      	bne.n	21b0 <_scanf_i+0xb8>
    2230:	2110      	movs	r1, #16
    2232:	f442 7280 	orr.w	r2, r2, #256	; 0x100
    2236:	6061      	str	r1, [r4, #4]
    2238:	e7a1      	b.n	217e <_scanf_i+0x86>
    223a:	f422 6210 	bic.w	r2, r2, #2304	; 0x900
    223e:	6022      	str	r2, [r4, #0]
    2240:	780b      	ldrb	r3, [r1, #0]
    2242:	3501      	adds	r5, #1
    2244:	f805 3c01 	strb.w	r3, [r5, #-1]
    2248:	e7dd      	b.n	2206 <_scanf_i+0x10e>
    224a:	f8d4 3180 	ldr.w	r3, [r4, #384]	; 0x180
    224e:	4631      	mov	r1, r6
    2250:	4658      	mov	r0, fp
    2252:	4798      	blx	r3
    2254:	2800      	cmp	r0, #0
    2256:	d0de      	beq.n	2216 <_scanf_i+0x11e>
    2258:	6823      	ldr	r3, [r4, #0]
    225a:	05d9      	lsls	r1, r3, #23
    225c:	d50c      	bpl.n	2278 <_scanf_i+0x180>
    225e:	454d      	cmp	r5, r9
    2260:	d908      	bls.n	2274 <_scanf_i+0x17c>
    2262:	f815 1c01 	ldrb.w	r1, [r5, #-1]
    2266:	4632      	mov	r2, r6
    2268:	f8d4 317c 	ldr.w	r3, [r4, #380]	; 0x17c
    226c:	4658      	mov	r0, fp
    226e:	4798      	blx	r3
    2270:	1e6f      	subs	r7, r5, #1
    2272:	463d      	mov	r5, r7
    2274:	454d      	cmp	r5, r9
    2276:	d02a      	beq.n	22ce <_scanf_i+0x1d6>
    2278:	6822      	ldr	r2, [r4, #0]
    227a:	f012 0210 	ands.w	r2, r2, #16
    227e:	d114      	bne.n	22aa <_scanf_i+0x1b2>
    2280:	702a      	strb	r2, [r5, #0]
    2282:	4649      	mov	r1, r9
    2284:	6863      	ldr	r3, [r4, #4]
    2286:	4658      	mov	r0, fp
    2288:	9e00      	ldr	r6, [sp, #0]
    228a:	47b0      	blx	r6
    228c:	6821      	ldr	r1, [r4, #0]
    228e:	f8da 3000 	ldr.w	r3, [sl]
    2292:	f011 0f20 	tst.w	r1, #32
    2296:	f103 0204 	add.w	r2, r3, #4
    229a:	f8ca 2000 	str.w	r2, [sl]
    229e:	681b      	ldr	r3, [r3, #0]
    22a0:	d010      	beq.n	22c4 <_scanf_i+0x1cc>
    22a2:	6018      	str	r0, [r3, #0]
    22a4:	68e3      	ldr	r3, [r4, #12]
    22a6:	3301      	adds	r3, #1
    22a8:	60e3      	str	r3, [r4, #12]
    22aa:	eba5 0509 	sub.w	r5, r5, r9
    22ae:	2000      	movs	r0, #0
    22b0:	44a8      	add	r8, r5
    22b2:	6925      	ldr	r5, [r4, #16]
    22b4:	4445      	add	r5, r8
    22b6:	6125      	str	r5, [r4, #16]
    22b8:	b007      	add	sp, #28
    22ba:	e8bd 8ff0 	ldmia.w	sp!, {r4, r5, r6, r7, r8, r9, sl, fp, pc}
    22be:	f04f 0800 	mov.w	r8, #0
    22c2:	e7c9      	b.n	2258 <_scanf_i+0x160>
    22c4:	07ca      	lsls	r2, r1, #31
    22c6:	bf4c      	ite	mi
    22c8:	8018      	strhmi	r0, [r3, #0]
    22ca:	6018      	strpl	r0, [r3, #0]
    22cc:	e7ea      	b.n	22a4 <_scanf_i+0x1ac>
    22ce:	2001      	movs	r0, #1
    22d0:	e7f2      	b.n	22b8 <_scanf_i+0x1c0>
    22d2:	bf00      	nop
    22d4:	000035dc 	ldrdeq	r3, [r0], -ip
    22d8:	00002675 	andeq	r2, r0, r5, ror r6
    22dc:	000027e1 	andeq	r2, r0, r1, ror #15
    22e0:	000035f8 	strdeq	r3, [r0], -r8

000022e4 <_read_r>:
    22e4:	b538      	push	{r3, r4, r5, lr}
    22e6:	4605      	mov	r5, r0
    22e8:	4c06      	ldr	r4, [pc, #24]	; (2304 <_read_r+0x20>)
    22ea:	4608      	mov	r0, r1
    22ec:	4611      	mov	r1, r2
    22ee:	2200      	movs	r2, #0
    22f0:	6022      	str	r2, [r4, #0]
    22f2:	461a      	mov	r2, r3
    22f4:	f7fd ef9a 	blx	22c <_read>
    22f8:	1c43      	adds	r3, r0, #1
    22fa:	d102      	bne.n	2302 <_read_r+0x1e>
    22fc:	6823      	ldr	r3, [r4, #0]
    22fe:	b103      	cbz	r3, 2302 <_read_r+0x1e>
    2300:	602b      	str	r3, [r5, #0]
    2302:	bd38      	pop	{r3, r4, r5, pc}
    2304:	000037ec 	andeq	r3, r0, ip, ror #15

00002308 <cleanup_glue>:
    2308:	b538      	push	{r3, r4, r5, lr}
    230a:	460c      	mov	r4, r1
    230c:	6809      	ldr	r1, [r1, #0]
    230e:	4605      	mov	r5, r0
    2310:	b109      	cbz	r1, 2316 <cleanup_glue+0xe>
    2312:	f7ff fff9 	bl	2308 <cleanup_glue>
    2316:	4621      	mov	r1, r4
    2318:	4628      	mov	r0, r5
    231a:	e8bd 4038 	ldmia.w	sp!, {r3, r4, r5, lr}
    231e:	f7fe bc6b 	b.w	bf8 <_free_r>
	...

00002324 <_reclaim_reent>:
    2324:	4b2c      	ldr	r3, [pc, #176]	; (23d8 <_reclaim_reent+0xb4>)
    2326:	b570      	push	{r4, r5, r6, lr}
    2328:	4604      	mov	r4, r0
    232a:	681b      	ldr	r3, [r3, #0]
    232c:	4283      	cmp	r3, r0
    232e:	d051      	beq.n	23d4 <_reclaim_reent+0xb0>
    2330:	6a43      	ldr	r3, [r0, #36]	; 0x24
    2332:	b143      	cbz	r3, 2346 <_reclaim_reent+0x22>
    2334:	68db      	ldr	r3, [r3, #12]
    2336:	2b00      	cmp	r3, #0
    2338:	d14a      	bne.n	23d0 <_reclaim_reent+0xac>
    233a:	6a63      	ldr	r3, [r4, #36]	; 0x24
    233c:	6819      	ldr	r1, [r3, #0]
    233e:	b111      	cbz	r1, 2346 <_reclaim_reent+0x22>
    2340:	4620      	mov	r0, r4
    2342:	f7fe fc59 	bl	bf8 <_free_r>
    2346:	6961      	ldr	r1, [r4, #20]
    2348:	b111      	cbz	r1, 2350 <_reclaim_reent+0x2c>
    234a:	4620      	mov	r0, r4
    234c:	f7fe fc54 	bl	bf8 <_free_r>
    2350:	6a61      	ldr	r1, [r4, #36]	; 0x24
    2352:	b111      	cbz	r1, 235a <_reclaim_reent+0x36>
    2354:	4620      	mov	r0, r4
    2356:	f7fe fc4f 	bl	bf8 <_free_r>
    235a:	6ba1      	ldr	r1, [r4, #56]	; 0x38
    235c:	b111      	cbz	r1, 2364 <_reclaim_reent+0x40>
    235e:	4620      	mov	r0, r4
    2360:	f7fe fc4a 	bl	bf8 <_free_r>
    2364:	6be1      	ldr	r1, [r4, #60]	; 0x3c
    2366:	b111      	cbz	r1, 236e <_reclaim_reent+0x4a>
    2368:	4620      	mov	r0, r4
    236a:	f7fe fc45 	bl	bf8 <_free_r>
    236e:	6c21      	ldr	r1, [r4, #64]	; 0x40
    2370:	b111      	cbz	r1, 2378 <_reclaim_reent+0x54>
    2372:	4620      	mov	r0, r4
    2374:	f7fe fc40 	bl	bf8 <_free_r>
    2378:	6de1      	ldr	r1, [r4, #92]	; 0x5c
    237a:	b111      	cbz	r1, 2382 <_reclaim_reent+0x5e>
    237c:	4620      	mov	r0, r4
    237e:	f7fe fc3b 	bl	bf8 <_free_r>
    2382:	6da1      	ldr	r1, [r4, #88]	; 0x58
    2384:	b111      	cbz	r1, 238c <_reclaim_reent+0x68>
    2386:	4620      	mov	r0, r4
    2388:	f7fe fc36 	bl	bf8 <_free_r>
    238c:	6b61      	ldr	r1, [r4, #52]	; 0x34
    238e:	b111      	cbz	r1, 2396 <_reclaim_reent+0x72>
    2390:	4620      	mov	r0, r4
    2392:	f7fe fc31 	bl	bf8 <_free_r>
    2396:	69a3      	ldr	r3, [r4, #24]
    2398:	b1e3      	cbz	r3, 23d4 <_reclaim_reent+0xb0>
    239a:	6aa3      	ldr	r3, [r4, #40]	; 0x28
    239c:	4620      	mov	r0, r4
    239e:	4798      	blx	r3
    23a0:	6ca1      	ldr	r1, [r4, #72]	; 0x48
    23a2:	b1b9      	cbz	r1, 23d4 <_reclaim_reent+0xb0>
    23a4:	4620      	mov	r0, r4
    23a6:	e8bd 4070 	ldmia.w	sp!, {r4, r5, r6, lr}
    23aa:	f7ff bfad 	b.w	2308 <cleanup_glue>
    23ae:	5949      	ldr	r1, [r1, r5]
    23b0:	b941      	cbnz	r1, 23c4 <_reclaim_reent+0xa0>
    23b2:	3504      	adds	r5, #4
    23b4:	6a63      	ldr	r3, [r4, #36]	; 0x24
    23b6:	2d80      	cmp	r5, #128	; 0x80
    23b8:	68d9      	ldr	r1, [r3, #12]
    23ba:	d1f8      	bne.n	23ae <_reclaim_reent+0x8a>
    23bc:	4620      	mov	r0, r4
    23be:	f7fe fc1b 	bl	bf8 <_free_r>
    23c2:	e7ba      	b.n	233a <_reclaim_reent+0x16>
    23c4:	680e      	ldr	r6, [r1, #0]
    23c6:	4620      	mov	r0, r4
    23c8:	f7fe fc16 	bl	bf8 <_free_r>
    23cc:	4631      	mov	r1, r6
    23ce:	e7ef      	b.n	23b0 <_reclaim_reent+0x8c>
    23d0:	2500      	movs	r5, #0
    23d2:	e7ef      	b.n	23b4 <_reclaim_reent+0x90>
    23d4:	bd70      	pop	{r4, r5, r6, pc}
    23d6:	bf00      	nop
    23d8:	00003168 	andeq	r3, r0, r8, ror #2

000023dc <lflush>:
    23dc:	8983      	ldrh	r3, [r0, #12]
    23de:	f003 0309 	and.w	r3, r3, #9
    23e2:	2b09      	cmp	r3, #9
    23e4:	d101      	bne.n	23ea <lflush+0xe>
    23e6:	f7ff ba47 	b.w	1878 <fflush>
    23ea:	2000      	movs	r0, #0
    23ec:	4770      	bx	lr
	...

000023f0 <__srefill_r>:
    23f0:	b5f8      	push	{r3, r4, r5, r6, r7, lr}
    23f2:	460c      	mov	r4, r1
    23f4:	4605      	mov	r5, r0
    23f6:	b118      	cbz	r0, 2400 <__srefill_r+0x10>
    23f8:	6983      	ldr	r3, [r0, #24]
    23fa:	b90b      	cbnz	r3, 2400 <__srefill_r+0x10>
    23fc:	f7fe fae2 	bl	9c4 <__sinit>
    2400:	4b3c      	ldr	r3, [pc, #240]	; (24f4 <__srefill_r+0x104>)
    2402:	429c      	cmp	r4, r3
    2404:	d10a      	bne.n	241c <__srefill_r+0x2c>
    2406:	686c      	ldr	r4, [r5, #4]
    2408:	f9b4 200c 	ldrsh.w	r2, [r4, #12]
    240c:	2300      	movs	r3, #0
    240e:	6063      	str	r3, [r4, #4]
    2410:	b293      	uxth	r3, r2
    2412:	069e      	lsls	r6, r3, #26
    2414:	d50c      	bpl.n	2430 <__srefill_r+0x40>
    2416:	f04f 30ff 	mov.w	r0, #4294967295
    241a:	e067      	b.n	24ec <__srefill_r+0xfc>
    241c:	4b36      	ldr	r3, [pc, #216]	; (24f8 <__srefill_r+0x108>)
    241e:	429c      	cmp	r4, r3
    2420:	d101      	bne.n	2426 <__srefill_r+0x36>
    2422:	68ac      	ldr	r4, [r5, #8]
    2424:	e7f0      	b.n	2408 <__srefill_r+0x18>
    2426:	4b35      	ldr	r3, [pc, #212]	; (24fc <__srefill_r+0x10c>)
    2428:	429c      	cmp	r4, r3
    242a:	bf08      	it	eq
    242c:	68ec      	ldreq	r4, [r5, #12]
    242e:	e7eb      	b.n	2408 <__srefill_r+0x18>
    2430:	0758      	lsls	r0, r3, #29
    2432:	d449      	bmi.n	24c8 <__srefill_r+0xd8>
    2434:	06d9      	lsls	r1, r3, #27
    2436:	d405      	bmi.n	2444 <__srefill_r+0x54>
    2438:	2309      	movs	r3, #9
    243a:	f042 0240 	orr.w	r2, r2, #64	; 0x40
    243e:	602b      	str	r3, [r5, #0]
    2440:	81a2      	strh	r2, [r4, #12]
    2442:	e7e8      	b.n	2416 <__srefill_r+0x26>
    2444:	071a      	lsls	r2, r3, #28
    2446:	d50b      	bpl.n	2460 <__srefill_r+0x70>
    2448:	4621      	mov	r1, r4
    244a:	4628      	mov	r0, r5
    244c:	f7ff f9ea 	bl	1824 <_fflush_r>
    2450:	2800      	cmp	r0, #0
    2452:	d1e0      	bne.n	2416 <__srefill_r+0x26>
    2454:	89a3      	ldrh	r3, [r4, #12]
    2456:	60a0      	str	r0, [r4, #8]
    2458:	f023 0308 	bic.w	r3, r3, #8
    245c:	61a0      	str	r0, [r4, #24]
    245e:	81a3      	strh	r3, [r4, #12]
    2460:	89a3      	ldrh	r3, [r4, #12]
    2462:	f043 0304 	orr.w	r3, r3, #4
    2466:	81a3      	strh	r3, [r4, #12]
    2468:	6923      	ldr	r3, [r4, #16]
    246a:	b91b      	cbnz	r3, 2474 <__srefill_r+0x84>
    246c:	4621      	mov	r1, r4
    246e:	4628      	mov	r0, r5
    2470:	f7ff fb9c 	bl	1bac <__smakebuf_r>
    2474:	f9b4 700c 	ldrsh.w	r7, [r4, #12]
    2478:	b2be      	uxth	r6, r7
    247a:	07b3      	lsls	r3, r6, #30
    247c:	d00f      	beq.n	249e <__srefill_r+0xae>
    247e:	2301      	movs	r3, #1
    2480:	81a3      	strh	r3, [r4, #12]
    2482:	4b1f      	ldr	r3, [pc, #124]	; (2500 <__srefill_r+0x110>)
    2484:	f006 0609 	and.w	r6, r6, #9
    2488:	491e      	ldr	r1, [pc, #120]	; (2504 <__srefill_r+0x114>)
    248a:	6818      	ldr	r0, [r3, #0]
    248c:	f7fe fb3e 	bl	b0c <_fwalk>
    2490:	2e09      	cmp	r6, #9
    2492:	81a7      	strh	r7, [r4, #12]
    2494:	d103      	bne.n	249e <__srefill_r+0xae>
    2496:	4621      	mov	r1, r4
    2498:	4628      	mov	r0, r5
    249a:	f7ff f93d 	bl	1718 <__sflush_r>
    249e:	6922      	ldr	r2, [r4, #16]
    24a0:	4628      	mov	r0, r5
    24a2:	6a66      	ldr	r6, [r4, #36]	; 0x24
    24a4:	6963      	ldr	r3, [r4, #20]
    24a6:	6022      	str	r2, [r4, #0]
    24a8:	6a21      	ldr	r1, [r4, #32]
    24aa:	47b0      	blx	r6
    24ac:	2800      	cmp	r0, #0
    24ae:	6060      	str	r0, [r4, #4]
    24b0:	dc1d      	bgt.n	24ee <__srefill_r+0xfe>
    24b2:	f9b4 300c 	ldrsh.w	r3, [r4, #12]
    24b6:	bf1b      	ittet	ne
    24b8:	2200      	movne	r2, #0
    24ba:	6062      	strne	r2, [r4, #4]
    24bc:	f043 0320 	orreq.w	r3, r3, #32
    24c0:	f043 0340 	orrne.w	r3, r3, #64	; 0x40
    24c4:	81a3      	strh	r3, [r4, #12]
    24c6:	e7a6      	b.n	2416 <__srefill_r+0x26>
    24c8:	6b61      	ldr	r1, [r4, #52]	; 0x34
    24ca:	2900      	cmp	r1, #0
    24cc:	d0cc      	beq.n	2468 <__srefill_r+0x78>
    24ce:	f104 0344 	add.w	r3, r4, #68	; 0x44
    24d2:	4299      	cmp	r1, r3
    24d4:	d002      	beq.n	24dc <__srefill_r+0xec>
    24d6:	4628      	mov	r0, r5
    24d8:	f7fe fb8e 	bl	bf8 <_free_r>
    24dc:	6c23      	ldr	r3, [r4, #64]	; 0x40
    24de:	2000      	movs	r0, #0
    24e0:	6360      	str	r0, [r4, #52]	; 0x34
    24e2:	6063      	str	r3, [r4, #4]
    24e4:	2b00      	cmp	r3, #0
    24e6:	d0bf      	beq.n	2468 <__srefill_r+0x78>
    24e8:	6be3      	ldr	r3, [r4, #60]	; 0x3c
    24ea:	6023      	str	r3, [r4, #0]
    24ec:	bdf8      	pop	{r3, r4, r5, r6, r7, pc}
    24ee:	2000      	movs	r0, #0
    24f0:	e7fc      	b.n	24ec <__srefill_r+0xfc>
    24f2:	bf00      	nop
    24f4:	00003564 	andeq	r3, r0, r4, ror #10
    24f8:	00003584 	andeq	r3, r0, r4, lsl #11
    24fc:	00003544 	andeq	r3, r0, r4, asr #10
    2500:	000035a4 	andeq	r3, r0, r4, lsr #11
    2504:	000023dd 	ldrdeq	r2, [r0], -sp

00002508 <__sccl>:
    2508:	b570      	push	{r4, r5, r6, lr}
    250a:	1e44      	subs	r4, r0, #1
    250c:	780b      	ldrb	r3, [r1, #0]
    250e:	f100 05ff 	add.w	r5, r0, #255	; 0xff
    2512:	2b5e      	cmp	r3, #94	; 0x5e
    2514:	bf13      	iteet	ne
    2516:	1c4a      	addne	r2, r1, #1
    2518:	1c8a      	addeq	r2, r1, #2
    251a:	784b      	ldrbeq	r3, [r1, #1]
    251c:	2100      	movne	r1, #0
    251e:	bf08      	it	eq
    2520:	2101      	moveq	r1, #1
    2522:	f804 1f01 	strb.w	r1, [r4, #1]!
    2526:	42ac      	cmp	r4, r5
    2528:	d1fb      	bne.n	2522 <__sccl+0x1a>
    252a:	b913      	cbnz	r3, 2532 <__sccl+0x2a>
    252c:	3a01      	subs	r2, #1
    252e:	4610      	mov	r0, r2
    2530:	bd70      	pop	{r4, r5, r6, pc}
    2532:	f081 0401 	eor.w	r4, r1, #1
    2536:	1c51      	adds	r1, r2, #1
    2538:	54c4      	strb	r4, [r0, r3]
    253a:	f811 5c01 	ldrb.w	r5, [r1, #-1]
    253e:	1e4e      	subs	r6, r1, #1
    2540:	460a      	mov	r2, r1
    2542:	2d2d      	cmp	r5, #45	; 0x2d
    2544:	d006      	beq.n	2554 <__sccl+0x4c>
    2546:	2d5d      	cmp	r5, #93	; 0x5d
    2548:	d0f1      	beq.n	252e <__sccl+0x26>
    254a:	b90d      	cbnz	r5, 2550 <__sccl+0x48>
    254c:	4632      	mov	r2, r6
    254e:	e7ee      	b.n	252e <__sccl+0x26>
    2550:	462b      	mov	r3, r5
    2552:	e7f0      	b.n	2536 <__sccl+0x2e>
    2554:	780e      	ldrb	r6, [r1, #0]
    2556:	2e5d      	cmp	r6, #93	; 0x5d
    2558:	d0fa      	beq.n	2550 <__sccl+0x48>
    255a:	42b3      	cmp	r3, r6
    255c:	dcf8      	bgt.n	2550 <__sccl+0x48>
    255e:	3301      	adds	r3, #1
    2560:	429e      	cmp	r6, r3
    2562:	54c4      	strb	r4, [r0, r3]
    2564:	dcfb      	bgt.n	255e <__sccl+0x56>
    2566:	3102      	adds	r1, #2
    2568:	e7e7      	b.n	253a <__sccl+0x32>

0000256a <_strtol_l.isra.0>:
    256a:	e92d 4ff8 	stmdb	sp!, {r3, r4, r5, r6, r7, r8, r9, sl, fp, lr}
    256e:	4681      	mov	r9, r0
    2570:	4688      	mov	r8, r1
    2572:	4692      	mov	sl, r2
    2574:	461f      	mov	r7, r3
    2576:	468b      	mov	fp, r1
    2578:	465d      	mov	r5, fp
    257a:	980a      	ldr	r0, [sp, #40]	; 0x28
    257c:	f815 4b01 	ldrb.w	r4, [r5], #1
    2580:	f000 fa62 	bl	2a48 <__locale_ctype_ptr_l>
    2584:	4420      	add	r0, r4
    2586:	7846      	ldrb	r6, [r0, #1]
    2588:	f016 0608 	ands.w	r6, r6, #8
    258c:	d137      	bne.n	25fe <_strtol_l.isra.0+0x94>
    258e:	2c2d      	cmp	r4, #45	; 0x2d
    2590:	d137      	bne.n	2602 <_strtol_l.isra.0+0x98>
    2592:	f89b 4001 	ldrb.w	r4, [fp, #1]
    2596:	f10b 0502 	add.w	r5, fp, #2
    259a:	2601      	movs	r6, #1
    259c:	2f00      	cmp	r7, #0
    259e:	d065      	beq.n	266c <_strtol_l.isra.0+0x102>
    25a0:	2f10      	cmp	r7, #16
    25a2:	d109      	bne.n	25b8 <_strtol_l.isra.0+0x4e>
    25a4:	2c30      	cmp	r4, #48	; 0x30
    25a6:	d107      	bne.n	25b8 <_strtol_l.isra.0+0x4e>
    25a8:	782b      	ldrb	r3, [r5, #0]
    25aa:	f003 03df 	and.w	r3, r3, #223	; 0xdf
    25ae:	2b58      	cmp	r3, #88	; 0x58
    25b0:	d157      	bne.n	2662 <_strtol_l.isra.0+0xf8>
    25b2:	786c      	ldrb	r4, [r5, #1]
    25b4:	3502      	adds	r5, #2
    25b6:	2710      	movs	r7, #16
    25b8:	2e00      	cmp	r6, #0
    25ba:	4639      	mov	r1, r7
    25bc:	bf14      	ite	ne
    25be:	f04f 4b00 	movne.w	fp, #2147483648	; 0x80000000
    25c2:	f06f 4b00 	mvneq.w	fp, #2147483648	; 0x80000000
    25c6:	4658      	mov	r0, fp
    25c8:	f000 fbdc 	bl	2d84 <__aeabi_uidivmod>
    25cc:	f04f 0c00 	mov.w	ip, #0
    25d0:	4663      	mov	r3, ip
    25d2:	f1a4 0230 	sub.w	r2, r4, #48	; 0x30
    25d6:	2a09      	cmp	r2, #9
    25d8:	d81a      	bhi.n	2610 <_strtol_l.isra.0+0xa6>
    25da:	4614      	mov	r4, r2
    25dc:	42a7      	cmp	r7, r4
    25de:	dd26      	ble.n	262e <_strtol_l.isra.0+0xc4>
    25e0:	f1bc 3fff 	cmp.w	ip, #4294967295
    25e4:	d008      	beq.n	25f8 <_strtol_l.isra.0+0x8e>
    25e6:	4298      	cmp	r0, r3
    25e8:	d31e      	bcc.n	2628 <_strtol_l.isra.0+0xbe>
    25ea:	d101      	bne.n	25f0 <_strtol_l.isra.0+0x86>
    25ec:	42a1      	cmp	r1, r4
    25ee:	db1b      	blt.n	2628 <_strtol_l.isra.0+0xbe>
    25f0:	fb03 4307 	mla	r3, r3, r7, r4
    25f4:	f04f 0c01 	mov.w	ip, #1
    25f8:	f815 4b01 	ldrb.w	r4, [r5], #1
    25fc:	e7e9      	b.n	25d2 <_strtol_l.isra.0+0x68>
    25fe:	46ab      	mov	fp, r5
    2600:	e7ba      	b.n	2578 <_strtol_l.isra.0+0xe>
    2602:	2c2b      	cmp	r4, #43	; 0x2b
    2604:	bf04      	itt	eq
    2606:	f10b 0502 	addeq.w	r5, fp, #2
    260a:	f89b 4001 	ldrbeq.w	r4, [fp, #1]
    260e:	e7c5      	b.n	259c <_strtol_l.isra.0+0x32>
    2610:	f1a4 0241 	sub.w	r2, r4, #65	; 0x41
    2614:	2a19      	cmp	r2, #25
    2616:	d801      	bhi.n	261c <_strtol_l.isra.0+0xb2>
    2618:	3c37      	subs	r4, #55	; 0x37
    261a:	e7df      	b.n	25dc <_strtol_l.isra.0+0x72>
    261c:	f1a4 0261 	sub.w	r2, r4, #97	; 0x61
    2620:	2a19      	cmp	r2, #25
    2622:	d804      	bhi.n	262e <_strtol_l.isra.0+0xc4>
    2624:	3c57      	subs	r4, #87	; 0x57
    2626:	e7d9      	b.n	25dc <_strtol_l.isra.0+0x72>
    2628:	f04f 3cff 	mov.w	ip, #4294967295
    262c:	e7e4      	b.n	25f8 <_strtol_l.isra.0+0x8e>
    262e:	f1bc 3fff 	cmp.w	ip, #4294967295
    2632:	d109      	bne.n	2648 <_strtol_l.isra.0+0xde>
    2634:	2322      	movs	r3, #34	; 0x22
    2636:	f8c9 3000 	str.w	r3, [r9]
    263a:	465b      	mov	r3, fp
    263c:	f1ba 0f00 	cmp.w	sl, #0
    2640:	d10a      	bne.n	2658 <_strtol_l.isra.0+0xee>
    2642:	4618      	mov	r0, r3
    2644:	e8bd 8ff8 	ldmia.w	sp!, {r3, r4, r5, r6, r7, r8, r9, sl, fp, pc}
    2648:	b106      	cbz	r6, 264c <_strtol_l.isra.0+0xe2>
    264a:	425b      	negs	r3, r3
    264c:	f1ba 0f00 	cmp.w	sl, #0
    2650:	d0f7      	beq.n	2642 <_strtol_l.isra.0+0xd8>
    2652:	f1bc 0f00 	cmp.w	ip, #0
    2656:	d001      	beq.n	265c <_strtol_l.isra.0+0xf2>
    2658:	f105 38ff 	add.w	r8, r5, #4294967295
    265c:	f8ca 8000 	str.w	r8, [sl]
    2660:	e7ef      	b.n	2642 <_strtol_l.isra.0+0xd8>
    2662:	2430      	movs	r4, #48	; 0x30
    2664:	2f00      	cmp	r7, #0
    2666:	d1a7      	bne.n	25b8 <_strtol_l.isra.0+0x4e>
    2668:	2708      	movs	r7, #8
    266a:	e7a5      	b.n	25b8 <_strtol_l.isra.0+0x4e>
    266c:	2c30      	cmp	r4, #48	; 0x30
    266e:	d09b      	beq.n	25a8 <_strtol_l.isra.0+0x3e>
    2670:	270a      	movs	r7, #10
    2672:	e7a1      	b.n	25b8 <_strtol_l.isra.0+0x4e>

00002674 <_strtol_r>:
    2674:	b537      	push	{r0, r1, r2, r4, r5, lr}
    2676:	4c06      	ldr	r4, [pc, #24]	; (2690 <_strtol_r+0x1c>)
    2678:	4d06      	ldr	r5, [pc, #24]	; (2694 <_strtol_r+0x20>)
    267a:	6824      	ldr	r4, [r4, #0]
    267c:	6a24      	ldr	r4, [r4, #32]
    267e:	2c00      	cmp	r4, #0
    2680:	bf08      	it	eq
    2682:	462c      	moveq	r4, r5
    2684:	9400      	str	r4, [sp, #0]
    2686:	f7ff ff70 	bl	256a <_strtol_l.isra.0>
    268a:	b003      	add	sp, #12
    268c:	bd30      	pop	{r4, r5, pc}
    268e:	bf00      	nop
    2690:	00003168 	andeq	r3, r0, r8, ror #2
    2694:	000031cc 	andeq	r3, r0, ip, asr #3

00002698 <strtol_l>:
    2698:	b507      	push	{r0, r1, r2, lr}
    269a:	9300      	str	r3, [sp, #0]
    269c:	4613      	mov	r3, r2
    269e:	460a      	mov	r2, r1
    26a0:	4601      	mov	r1, r0
    26a2:	4803      	ldr	r0, [pc, #12]	; (26b0 <strtol_l+0x18>)
    26a4:	6800      	ldr	r0, [r0, #0]
    26a6:	f7ff ff60 	bl	256a <_strtol_l.isra.0>
    26aa:	b003      	add	sp, #12
    26ac:	f85d fb04 	ldr.w	pc, [sp], #4
    26b0:	00003168 	andeq	r3, r0, r8, ror #2

000026b4 <strtol>:
    26b4:	4b08      	ldr	r3, [pc, #32]	; (26d8 <strtol+0x24>)
    26b6:	b537      	push	{r0, r1, r2, r4, r5, lr}
    26b8:	681c      	ldr	r4, [r3, #0]
    26ba:	4d08      	ldr	r5, [pc, #32]	; (26dc <strtol+0x28>)
    26bc:	6a23      	ldr	r3, [r4, #32]
    26be:	2b00      	cmp	r3, #0
    26c0:	bf08      	it	eq
    26c2:	462b      	moveq	r3, r5
    26c4:	9300      	str	r3, [sp, #0]
    26c6:	4613      	mov	r3, r2
    26c8:	460a      	mov	r2, r1
    26ca:	4601      	mov	r1, r0
    26cc:	4620      	mov	r0, r4
    26ce:	f7ff ff4c 	bl	256a <_strtol_l.isra.0>
    26d2:	b003      	add	sp, #12
    26d4:	bd30      	pop	{r4, r5, pc}
    26d6:	bf00      	nop
    26d8:	00003168 	andeq	r3, r0, r8, ror #2
    26dc:	000031cc 	andeq	r3, r0, ip, asr #3

000026e0 <_strtoul_l.isra.0>:
    26e0:	e92d 4ff8 	stmdb	sp!, {r3, r4, r5, r6, r7, r8, r9, sl, fp, lr}
    26e4:	4681      	mov	r9, r0
    26e6:	4688      	mov	r8, r1
    26e8:	4692      	mov	sl, r2
    26ea:	461e      	mov	r6, r3
    26ec:	468b      	mov	fp, r1
    26ee:	465d      	mov	r5, fp
    26f0:	980a      	ldr	r0, [sp, #40]	; 0x28
    26f2:	f815 4b01 	ldrb.w	r4, [r5], #1
    26f6:	f000 f9a7 	bl	2a48 <__locale_ctype_ptr_l>
    26fa:	4420      	add	r0, r4
    26fc:	7847      	ldrb	r7, [r0, #1]
    26fe:	f017 0708 	ands.w	r7, r7, #8
    2702:	d135      	bne.n	2770 <_strtoul_l.isra.0+0x90>
    2704:	2c2d      	cmp	r4, #45	; 0x2d
    2706:	d135      	bne.n	2774 <_strtoul_l.isra.0+0x94>
    2708:	f89b 4001 	ldrb.w	r4, [fp, #1]
    270c:	f10b 0502 	add.w	r5, fp, #2
    2710:	2701      	movs	r7, #1
    2712:	2e00      	cmp	r6, #0
    2714:	d060      	beq.n	27d8 <_strtoul_l.isra.0+0xf8>
    2716:	2e10      	cmp	r6, #16
    2718:	d109      	bne.n	272e <_strtoul_l.isra.0+0x4e>
    271a:	2c30      	cmp	r4, #48	; 0x30
    271c:	d107      	bne.n	272e <_strtoul_l.isra.0+0x4e>
    271e:	782b      	ldrb	r3, [r5, #0]
    2720:	f003 03df 	and.w	r3, r3, #223	; 0xdf
    2724:	2b58      	cmp	r3, #88	; 0x58
    2726:	d152      	bne.n	27ce <_strtoul_l.isra.0+0xee>
    2728:	786c      	ldrb	r4, [r5, #1]
    272a:	3502      	adds	r5, #2
    272c:	2610      	movs	r6, #16
    272e:	4631      	mov	r1, r6
    2730:	f04f 30ff 	mov.w	r0, #4294967295
    2734:	f000 f9f8 	bl	2b28 <__udivsi3>
    2738:	4631      	mov	r1, r6
    273a:	4683      	mov	fp, r0
    273c:	f04f 30ff 	mov.w	r0, #4294967295
    2740:	f000 fb20 	bl	2d84 <__aeabi_uidivmod>
    2744:	2300      	movs	r3, #0
    2746:	4618      	mov	r0, r3
    2748:	f1a4 0230 	sub.w	r2, r4, #48	; 0x30
    274c:	2a09      	cmp	r2, #9
    274e:	d818      	bhi.n	2782 <_strtoul_l.isra.0+0xa2>
    2750:	4614      	mov	r4, r2
    2752:	42a6      	cmp	r6, r4
    2754:	dd24      	ble.n	27a0 <_strtoul_l.isra.0+0xc0>
    2756:	2b00      	cmp	r3, #0
    2758:	db1f      	blt.n	279a <_strtoul_l.isra.0+0xba>
    275a:	4583      	cmp	fp, r0
    275c:	d31d      	bcc.n	279a <_strtoul_l.isra.0+0xba>
    275e:	d101      	bne.n	2764 <_strtoul_l.isra.0+0x84>
    2760:	42a1      	cmp	r1, r4
    2762:	db1a      	blt.n	279a <_strtoul_l.isra.0+0xba>
    2764:	fb00 4006 	mla	r0, r0, r6, r4
    2768:	2301      	movs	r3, #1
    276a:	f815 4b01 	ldrb.w	r4, [r5], #1
    276e:	e7eb      	b.n	2748 <_strtoul_l.isra.0+0x68>
    2770:	46ab      	mov	fp, r5
    2772:	e7bc      	b.n	26ee <_strtoul_l.isra.0+0xe>
    2774:	2c2b      	cmp	r4, #43	; 0x2b
    2776:	bf04      	itt	eq
    2778:	f10b 0502 	addeq.w	r5, fp, #2
    277c:	f89b 4001 	ldrbeq.w	r4, [fp, #1]
    2780:	e7c7      	b.n	2712 <_strtoul_l.isra.0+0x32>
    2782:	f1a4 0241 	sub.w	r2, r4, #65	; 0x41
    2786:	2a19      	cmp	r2, #25
    2788:	d801      	bhi.n	278e <_strtoul_l.isra.0+0xae>
    278a:	3c37      	subs	r4, #55	; 0x37
    278c:	e7e1      	b.n	2752 <_strtoul_l.isra.0+0x72>
    278e:	f1a4 0261 	sub.w	r2, r4, #97	; 0x61
    2792:	2a19      	cmp	r2, #25
    2794:	d804      	bhi.n	27a0 <_strtoul_l.isra.0+0xc0>
    2796:	3c57      	subs	r4, #87	; 0x57
    2798:	e7db      	b.n	2752 <_strtoul_l.isra.0+0x72>
    279a:	f04f 33ff 	mov.w	r3, #4294967295
    279e:	e7e4      	b.n	276a <_strtoul_l.isra.0+0x8a>
    27a0:	2b00      	cmp	r3, #0
    27a2:	da09      	bge.n	27b8 <_strtoul_l.isra.0+0xd8>
    27a4:	2322      	movs	r3, #34	; 0x22
    27a6:	f04f 30ff 	mov.w	r0, #4294967295
    27aa:	f8c9 3000 	str.w	r3, [r9]
    27ae:	f1ba 0f00 	cmp.w	sl, #0
    27b2:	d107      	bne.n	27c4 <_strtoul_l.isra.0+0xe4>
    27b4:	e8bd 8ff8 	ldmia.w	sp!, {r3, r4, r5, r6, r7, r8, r9, sl, fp, pc}
    27b8:	b107      	cbz	r7, 27bc <_strtoul_l.isra.0+0xdc>
    27ba:	4240      	negs	r0, r0
    27bc:	f1ba 0f00 	cmp.w	sl, #0
    27c0:	d0f8      	beq.n	27b4 <_strtoul_l.isra.0+0xd4>
    27c2:	b10b      	cbz	r3, 27c8 <_strtoul_l.isra.0+0xe8>
    27c4:	f105 38ff 	add.w	r8, r5, #4294967295
    27c8:	f8ca 8000 	str.w	r8, [sl]
    27cc:	e7f2      	b.n	27b4 <_strtoul_l.isra.0+0xd4>
    27ce:	2430      	movs	r4, #48	; 0x30
    27d0:	2e00      	cmp	r6, #0
    27d2:	d1ac      	bne.n	272e <_strtoul_l.isra.0+0x4e>
    27d4:	2608      	movs	r6, #8
    27d6:	e7aa      	b.n	272e <_strtoul_l.isra.0+0x4e>
    27d8:	2c30      	cmp	r4, #48	; 0x30
    27da:	d0a0      	beq.n	271e <_strtoul_l.isra.0+0x3e>
    27dc:	260a      	movs	r6, #10
    27de:	e7a6      	b.n	272e <_strtoul_l.isra.0+0x4e>

000027e0 <_strtoul_r>:
    27e0:	b537      	push	{r0, r1, r2, r4, r5, lr}
    27e2:	4c06      	ldr	r4, [pc, #24]	; (27fc <_strtoul_r+0x1c>)
    27e4:	4d06      	ldr	r5, [pc, #24]	; (2800 <_strtoul_r+0x20>)
    27e6:	6824      	ldr	r4, [r4, #0]
    27e8:	6a24      	ldr	r4, [r4, #32]
    27ea:	2c00      	cmp	r4, #0
    27ec:	bf08      	it	eq
    27ee:	462c      	moveq	r4, r5
    27f0:	9400      	str	r4, [sp, #0]
    27f2:	f7ff ff75 	bl	26e0 <_strtoul_l.isra.0>
    27f6:	b003      	add	sp, #12
    27f8:	bd30      	pop	{r4, r5, pc}
    27fa:	bf00      	nop
    27fc:	00003168 	andeq	r3, r0, r8, ror #2
    2800:	000031cc 	andeq	r3, r0, ip, asr #3

00002804 <strtoul_l>:
    2804:	b507      	push	{r0, r1, r2, lr}
    2806:	9300      	str	r3, [sp, #0]
    2808:	4613      	mov	r3, r2
    280a:	460a      	mov	r2, r1
    280c:	4601      	mov	r1, r0
    280e:	4803      	ldr	r0, [pc, #12]	; (281c <strtoul_l+0x18>)
    2810:	6800      	ldr	r0, [r0, #0]
    2812:	f7ff ff65 	bl	26e0 <_strtoul_l.isra.0>
    2816:	b003      	add	sp, #12
    2818:	f85d fb04 	ldr.w	pc, [sp], #4
    281c:	00003168 	andeq	r3, r0, r8, ror #2

00002820 <strtoul>:
    2820:	4b08      	ldr	r3, [pc, #32]	; (2844 <strtoul+0x24>)
    2822:	b537      	push	{r0, r1, r2, r4, r5, lr}
    2824:	681c      	ldr	r4, [r3, #0]
    2826:	4d08      	ldr	r5, [pc, #32]	; (2848 <strtoul+0x28>)
    2828:	6a23      	ldr	r3, [r4, #32]
    282a:	2b00      	cmp	r3, #0
    282c:	bf08      	it	eq
    282e:	462b      	moveq	r3, r5
    2830:	9300      	str	r3, [sp, #0]
    2832:	4613      	mov	r3, r2
    2834:	460a      	mov	r2, r1
    2836:	4601      	mov	r1, r0
    2838:	4620      	mov	r0, r4
    283a:	f7ff ff51 	bl	26e0 <_strtoul_l.isra.0>
    283e:	b003      	add	sp, #12
    2840:	bd30      	pop	{r4, r5, pc}
    2842:	bf00      	nop
    2844:	00003168 	andeq	r3, r0, r8, ror #2
    2848:	000031cc 	andeq	r3, r0, ip, asr #3

0000284c <__submore>:
    284c:	e92d 41f0 	stmdb	sp!, {r4, r5, r6, r7, r8, lr}
    2850:	460c      	mov	r4, r1
    2852:	6b49      	ldr	r1, [r1, #52]	; 0x34
    2854:	f104 0344 	add.w	r3, r4, #68	; 0x44
    2858:	4299      	cmp	r1, r3
    285a:	d11a      	bne.n	2892 <__submore+0x46>
    285c:	f44f 6180 	mov.w	r1, #1024	; 0x400
    2860:	f7fe fa16 	bl	c90 <_malloc_r>
    2864:	b918      	cbnz	r0, 286e <__submore+0x22>
    2866:	f04f 30ff 	mov.w	r0, #4294967295
    286a:	e8bd 81f0 	ldmia.w	sp!, {r4, r5, r6, r7, r8, pc}
    286e:	f44f 6380 	mov.w	r3, #1024	; 0x400
    2872:	63a3      	str	r3, [r4, #56]	; 0x38
    2874:	f894 3046 	ldrb.w	r3, [r4, #70]	; 0x46
    2878:	6360      	str	r0, [r4, #52]	; 0x34
    287a:	f200 30fd 	addw	r0, r0, #1021	; 0x3fd
    287e:	7083      	strb	r3, [r0, #2]
    2880:	f894 3045 	ldrb.w	r3, [r4, #69]	; 0x45
    2884:	7043      	strb	r3, [r0, #1]
    2886:	f894 3044 	ldrb.w	r3, [r4, #68]	; 0x44
    288a:	7003      	strb	r3, [r0, #0]
    288c:	6020      	str	r0, [r4, #0]
    288e:	2000      	movs	r0, #0
    2890:	e7eb      	b.n	286a <__submore+0x1e>
    2892:	6ba6      	ldr	r6, [r4, #56]	; 0x38
    2894:	0077      	lsls	r7, r6, #1
    2896:	463a      	mov	r2, r7
    2898:	f7ff f9fc 	bl	1c94 <_realloc_r>
    289c:	4605      	mov	r5, r0
    289e:	2800      	cmp	r0, #0
    28a0:	d0e1      	beq.n	2866 <__submore+0x1a>
    28a2:	eb00 0806 	add.w	r8, r0, r6
    28a6:	4601      	mov	r1, r0
    28a8:	4632      	mov	r2, r6
    28aa:	4640      	mov	r0, r8
    28ac:	f7ff f9cc 	bl	1c48 <memcpy>
    28b0:	f8c4 8000 	str.w	r8, [r4]
    28b4:	e9c4 570d 	strd	r5, r7, [r4, #52]	; 0x34
    28b8:	e7e9      	b.n	288e <__submore+0x42>
	...

000028bc <_ungetc_r>:
    28bc:	1c4b      	adds	r3, r1, #1
    28be:	b570      	push	{r4, r5, r6, lr}
    28c0:	4606      	mov	r6, r0
    28c2:	460d      	mov	r5, r1
    28c4:	4614      	mov	r4, r2
    28c6:	d103      	bne.n	28d0 <_ungetc_r+0x14>
    28c8:	f04f 35ff 	mov.w	r5, #4294967295
    28cc:	4628      	mov	r0, r5
    28ce:	bd70      	pop	{r4, r5, r6, pc}
    28d0:	b118      	cbz	r0, 28da <_ungetc_r+0x1e>
    28d2:	6983      	ldr	r3, [r0, #24]
    28d4:	b90b      	cbnz	r3, 28da <_ungetc_r+0x1e>
    28d6:	f7fe f875 	bl	9c4 <__sinit>
    28da:	4b2e      	ldr	r3, [pc, #184]	; (2994 <_ungetc_r+0xd8>)
    28dc:	429c      	cmp	r4, r3
    28de:	d12c      	bne.n	293a <_ungetc_r+0x7e>
    28e0:	6874      	ldr	r4, [r6, #4]
    28e2:	f9b4 300c 	ldrsh.w	r3, [r4, #12]
    28e6:	f023 0320 	bic.w	r3, r3, #32
    28ea:	81a3      	strh	r3, [r4, #12]
    28ec:	b29b      	uxth	r3, r3
    28ee:	0759      	lsls	r1, r3, #29
    28f0:	d413      	bmi.n	291a <_ungetc_r+0x5e>
    28f2:	06da      	lsls	r2, r3, #27
    28f4:	d5e8      	bpl.n	28c8 <_ungetc_r+0xc>
    28f6:	071b      	lsls	r3, r3, #28
    28f8:	d50b      	bpl.n	2912 <_ungetc_r+0x56>
    28fa:	4621      	mov	r1, r4
    28fc:	4630      	mov	r0, r6
    28fe:	f7fe ff91 	bl	1824 <_fflush_r>
    2902:	2800      	cmp	r0, #0
    2904:	d1e0      	bne.n	28c8 <_ungetc_r+0xc>
    2906:	89a3      	ldrh	r3, [r4, #12]
    2908:	60a0      	str	r0, [r4, #8]
    290a:	f023 0308 	bic.w	r3, r3, #8
    290e:	61a0      	str	r0, [r4, #24]
    2910:	81a3      	strh	r3, [r4, #12]
    2912:	89a3      	ldrh	r3, [r4, #12]
    2914:	f043 0304 	orr.w	r3, r3, #4
    2918:	81a3      	strh	r3, [r4, #12]
    291a:	6b63      	ldr	r3, [r4, #52]	; 0x34
    291c:	b2ed      	uxtb	r5, r5
    291e:	6862      	ldr	r2, [r4, #4]
    2920:	b1e3      	cbz	r3, 295c <_ungetc_r+0xa0>
    2922:	6ba3      	ldr	r3, [r4, #56]	; 0x38
    2924:	4293      	cmp	r3, r2
    2926:	dd12      	ble.n	294e <_ungetc_r+0x92>
    2928:	6823      	ldr	r3, [r4, #0]
    292a:	1e5a      	subs	r2, r3, #1
    292c:	6022      	str	r2, [r4, #0]
    292e:	f803 5c01 	strb.w	r5, [r3, #-1]
    2932:	6863      	ldr	r3, [r4, #4]
    2934:	3301      	adds	r3, #1
    2936:	6063      	str	r3, [r4, #4]
    2938:	e7c8      	b.n	28cc <_ungetc_r+0x10>
    293a:	4b17      	ldr	r3, [pc, #92]	; (2998 <_ungetc_r+0xdc>)
    293c:	429c      	cmp	r4, r3
    293e:	d101      	bne.n	2944 <_ungetc_r+0x88>
    2940:	68b4      	ldr	r4, [r6, #8]
    2942:	e7ce      	b.n	28e2 <_ungetc_r+0x26>
    2944:	4b15      	ldr	r3, [pc, #84]	; (299c <_ungetc_r+0xe0>)
    2946:	429c      	cmp	r4, r3
    2948:	bf08      	it	eq
    294a:	68f4      	ldreq	r4, [r6, #12]
    294c:	e7c9      	b.n	28e2 <_ungetc_r+0x26>
    294e:	4621      	mov	r1, r4
    2950:	4630      	mov	r0, r6
    2952:	f7ff ff7b 	bl	284c <__submore>
    2956:	2800      	cmp	r0, #0
    2958:	d0e6      	beq.n	2928 <_ungetc_r+0x6c>
    295a:	e7b5      	b.n	28c8 <_ungetc_r+0xc>
    295c:	6921      	ldr	r1, [r4, #16]
    295e:	6823      	ldr	r3, [r4, #0]
    2960:	b151      	cbz	r1, 2978 <_ungetc_r+0xbc>
    2962:	4299      	cmp	r1, r3
    2964:	d208      	bcs.n	2978 <_ungetc_r+0xbc>
    2966:	f813 1c01 	ldrb.w	r1, [r3, #-1]
    296a:	42a9      	cmp	r1, r5
    296c:	d104      	bne.n	2978 <_ungetc_r+0xbc>
    296e:	3b01      	subs	r3, #1
    2970:	3201      	adds	r2, #1
    2972:	6023      	str	r3, [r4, #0]
    2974:	6062      	str	r2, [r4, #4]
    2976:	e7a9      	b.n	28cc <_ungetc_r+0x10>
    2978:	e9c4 320f 	strd	r3, r2, [r4, #60]	; 0x3c
    297c:	f104 0344 	add.w	r3, r4, #68	; 0x44
    2980:	6363      	str	r3, [r4, #52]	; 0x34
    2982:	2303      	movs	r3, #3
    2984:	63a3      	str	r3, [r4, #56]	; 0x38
    2986:	4623      	mov	r3, r4
    2988:	f803 5f46 	strb.w	r5, [r3, #70]!
    298c:	6023      	str	r3, [r4, #0]
    298e:	2301      	movs	r3, #1
    2990:	e7d1      	b.n	2936 <_ungetc_r+0x7a>
    2992:	bf00      	nop
    2994:	00003564 	andeq	r3, r0, r4, ror #10
    2998:	00003584 	andeq	r3, r0, r4, lsl #11
    299c:	00003544 	andeq	r3, r0, r4, asr #10

000029a0 <ungetc>:
    29a0:	4b02      	ldr	r3, [pc, #8]	; (29ac <ungetc+0xc>)
    29a2:	460a      	mov	r2, r1
    29a4:	4601      	mov	r1, r0
    29a6:	6818      	ldr	r0, [r3, #0]
    29a8:	f7ff bf88 	b.w	28bc <_ungetc_r>
    29ac:	00003168 	andeq	r3, r0, r8, ror #2

000029b0 <_fstat_r>:
    29b0:	b538      	push	{r3, r4, r5, lr}
    29b2:	4605      	mov	r5, r0
    29b4:	4c06      	ldr	r4, [pc, #24]	; (29d0 <_fstat_r+0x20>)
    29b6:	4608      	mov	r0, r1
    29b8:	4611      	mov	r1, r2
    29ba:	2300      	movs	r3, #0
    29bc:	6023      	str	r3, [r4, #0]
    29be:	f000 fb53 	bl	3068 <_fstat>
    29c2:	1c43      	adds	r3, r0, #1
    29c4:	d102      	bne.n	29cc <_fstat_r+0x1c>
    29c6:	6823      	ldr	r3, [r4, #0]
    29c8:	b103      	cbz	r3, 29cc <_fstat_r+0x1c>
    29ca:	602b      	str	r3, [r5, #0]
    29cc:	bd38      	pop	{r3, r4, r5, pc}
    29ce:	bf00      	nop
    29d0:	000037ec 	andeq	r3, r0, ip, ror #15

000029d4 <_isatty_r>:
    29d4:	b538      	push	{r3, r4, r5, lr}
    29d6:	4605      	mov	r5, r0
    29d8:	4c05      	ldr	r4, [pc, #20]	; (29f0 <_isatty_r+0x1c>)
    29da:	4608      	mov	r0, r1
    29dc:	2300      	movs	r3, #0
    29de:	6023      	str	r3, [r4, #0]
    29e0:	f000 fb4c 	bl	307c <_isatty>
    29e4:	1c43      	adds	r3, r0, #1
    29e6:	d102      	bne.n	29ee <_isatty_r+0x1a>
    29e8:	6823      	ldr	r3, [r4, #0]
    29ea:	b103      	cbz	r3, 29ee <_isatty_r+0x1a>
    29ec:	602b      	str	r3, [r5, #0]
    29ee:	bd38      	pop	{r3, r4, r5, pc}
    29f0:	000037ec 	andeq	r3, r0, ip, ror #15

000029f4 <_setlocale_r>:
    29f4:	b510      	push	{r4, lr}
    29f6:	4614      	mov	r4, r2
    29f8:	b172      	cbz	r2, 2a18 <_setlocale_r+0x24>
    29fa:	4909      	ldr	r1, [pc, #36]	; (2a20 <_setlocale_r+0x2c>)
    29fc:	4610      	mov	r0, r2
    29fe:	f000 f869 	bl	2ad4 <strcmp>
    2a02:	b148      	cbz	r0, 2a18 <_setlocale_r+0x24>
    2a04:	4907      	ldr	r1, [pc, #28]	; (2a24 <_setlocale_r+0x30>)
    2a06:	4620      	mov	r0, r4
    2a08:	f000 f864 	bl	2ad4 <strcmp>
    2a0c:	b120      	cbz	r0, 2a18 <_setlocale_r+0x24>
    2a0e:	4906      	ldr	r1, [pc, #24]	; (2a28 <_setlocale_r+0x34>)
    2a10:	4620      	mov	r0, r4
    2a12:	f000 f85f 	bl	2ad4 <strcmp>
    2a16:	b908      	cbnz	r0, 2a1c <_setlocale_r+0x28>
    2a18:	4802      	ldr	r0, [pc, #8]	; (2a24 <_setlocale_r+0x30>)
    2a1a:	bd10      	pop	{r4, pc}
    2a1c:	2000      	movs	r0, #0
    2a1e:	e7fc      	b.n	2a1a <_setlocale_r+0x26>
    2a20:	00003605 	andeq	r3, r0, r5, lsl #12
    2a24:	00003603 	andeq	r3, r0, r3, lsl #12
    2a28:	000035ad 	andeq	r3, r0, sp, lsr #11

00002a2c <__locale_mb_cur_max>:
    2a2c:	4b04      	ldr	r3, [pc, #16]	; (2a40 <__locale_mb_cur_max+0x14>)
    2a2e:	4a05      	ldr	r2, [pc, #20]	; (2a44 <__locale_mb_cur_max+0x18>)
    2a30:	681b      	ldr	r3, [r3, #0]
    2a32:	6a1b      	ldr	r3, [r3, #32]
    2a34:	2b00      	cmp	r3, #0
    2a36:	bf08      	it	eq
    2a38:	4613      	moveq	r3, r2
    2a3a:	f893 0128 	ldrb.w	r0, [r3, #296]	; 0x128
    2a3e:	4770      	bx	lr
    2a40:	00003168 	andeq	r3, r0, r8, ror #2
    2a44:	000031cc 	andeq	r3, r0, ip, asr #3

00002a48 <__locale_ctype_ptr_l>:
    2a48:	f8d0 00ec 	ldr.w	r0, [r0, #236]	; 0xec
    2a4c:	4770      	bx	lr
	...

00002a50 <__locale_ctype_ptr>:
    2a50:	4b04      	ldr	r3, [pc, #16]	; (2a64 <__locale_ctype_ptr+0x14>)
    2a52:	4a05      	ldr	r2, [pc, #20]	; (2a68 <__locale_ctype_ptr+0x18>)
    2a54:	681b      	ldr	r3, [r3, #0]
    2a56:	6a1b      	ldr	r3, [r3, #32]
    2a58:	2b00      	cmp	r3, #0
    2a5a:	bf08      	it	eq
    2a5c:	4613      	moveq	r3, r2
    2a5e:	f8d3 00ec 	ldr.w	r0, [r3, #236]	; 0xec
    2a62:	4770      	bx	lr
    2a64:	00003168 	andeq	r3, r0, r8, ror #2
    2a68:	000031cc 	andeq	r3, r0, ip, asr #3

00002a6c <setlocale>:
    2a6c:	4b02      	ldr	r3, [pc, #8]	; (2a78 <setlocale+0xc>)
    2a6e:	460a      	mov	r2, r1
    2a70:	4601      	mov	r1, r0
    2a72:	6818      	ldr	r0, [r3, #0]
    2a74:	f7ff bfbe 	b.w	29f4 <_setlocale_r>
    2a78:	00003168 	andeq	r3, r0, r8, ror #2

00002a7c <_mbtowc_r>:
    2a7c:	b430      	push	{r4, r5}
    2a7e:	4c06      	ldr	r4, [pc, #24]	; (2a98 <_mbtowc_r+0x1c>)
    2a80:	4d06      	ldr	r5, [pc, #24]	; (2a9c <_mbtowc_r+0x20>)
    2a82:	6824      	ldr	r4, [r4, #0]
    2a84:	6a24      	ldr	r4, [r4, #32]
    2a86:	2c00      	cmp	r4, #0
    2a88:	bf08      	it	eq
    2a8a:	462c      	moveq	r4, r5
    2a8c:	f8d4 40e4 	ldr.w	r4, [r4, #228]	; 0xe4
    2a90:	46a4      	mov	ip, r4
    2a92:	bc30      	pop	{r4, r5}
    2a94:	4760      	bx	ip
    2a96:	bf00      	nop
    2a98:	00003168 	andeq	r3, r0, r8, ror #2
    2a9c:	000031cc 	andeq	r3, r0, ip, asr #3

00002aa0 <__ascii_mbtowc>:
    2aa0:	b082      	sub	sp, #8
    2aa2:	b901      	cbnz	r1, 2aa6 <__ascii_mbtowc+0x6>
    2aa4:	a901      	add	r1, sp, #4
    2aa6:	b142      	cbz	r2, 2aba <__ascii_mbtowc+0x1a>
    2aa8:	b14b      	cbz	r3, 2abe <__ascii_mbtowc+0x1e>
    2aaa:	7813      	ldrb	r3, [r2, #0]
    2aac:	600b      	str	r3, [r1, #0]
    2aae:	7812      	ldrb	r2, [r2, #0]
    2ab0:	1c10      	adds	r0, r2, #0
    2ab2:	bf18      	it	ne
    2ab4:	2001      	movne	r0, #1
    2ab6:	b002      	add	sp, #8
    2ab8:	4770      	bx	lr
    2aba:	4610      	mov	r0, r2
    2abc:	e7fb      	b.n	2ab6 <__ascii_mbtowc+0x16>
    2abe:	f06f 0001 	mvn.w	r0, #1
    2ac2:	e7f8      	b.n	2ab6 <__ascii_mbtowc+0x16>

00002ac4 <_malloc_usable_size_r>:
    2ac4:	f851 3c04 	ldr.w	r3, [r1, #-4]
    2ac8:	1f18      	subs	r0, r3, #4
    2aca:	2b00      	cmp	r3, #0
    2acc:	bfbc      	itt	lt
    2ace:	580b      	ldrlt	r3, [r1, r0]
    2ad0:	18c0      	addlt	r0, r0, r3
    2ad2:	4770      	bx	lr

00002ad4 <strcmp>:
    2ad4:	f810 2b01 	ldrb.w	r2, [r0], #1
    2ad8:	f811 3b01 	ldrb.w	r3, [r1], #1
    2adc:	2a01      	cmp	r2, #1
    2ade:	bf28      	it	cs
    2ae0:	429a      	cmpcs	r2, r3
    2ae2:	d0f7      	beq.n	2ad4 <strcmp>
    2ae4:	1ad0      	subs	r0, r2, r3
    2ae6:	4770      	bx	lr

00002ae8 <_wctomb_r>:
    2ae8:	b430      	push	{r4, r5}
    2aea:	4c06      	ldr	r4, [pc, #24]	; (2b04 <_wctomb_r+0x1c>)
    2aec:	4d06      	ldr	r5, [pc, #24]	; (2b08 <_wctomb_r+0x20>)
    2aee:	6824      	ldr	r4, [r4, #0]
    2af0:	6a24      	ldr	r4, [r4, #32]
    2af2:	2c00      	cmp	r4, #0
    2af4:	bf08      	it	eq
    2af6:	462c      	moveq	r4, r5
    2af8:	f8d4 40e0 	ldr.w	r4, [r4, #224]	; 0xe0
    2afc:	46a4      	mov	ip, r4
    2afe:	bc30      	pop	{r4, r5}
    2b00:	4760      	bx	ip
    2b02:	bf00      	nop
    2b04:	00003168 	andeq	r3, r0, r8, ror #2
    2b08:	000031cc 	andeq	r3, r0, ip, asr #3

00002b0c <__ascii_wctomb>:
    2b0c:	b149      	cbz	r1, 2b22 <__ascii_wctomb+0x16>
    2b0e:	2aff      	cmp	r2, #255	; 0xff
    2b10:	bf95      	itete	ls
    2b12:	700a      	strbls	r2, [r1, #0]
    2b14:	238a      	movhi	r3, #138	; 0x8a
    2b16:	2001      	movls	r0, #1
    2b18:	6003      	strhi	r3, [r0, #0]
    2b1a:	bf88      	it	hi
    2b1c:	f04f 30ff 	movhi.w	r0, #4294967295
    2b20:	4770      	bx	lr
    2b22:	4608      	mov	r0, r1
    2b24:	4770      	bx	lr
	...

00002b28 <__udivsi3>:
    2b28:	1e4a      	subs	r2, r1, #1
    2b2a:	bf08      	it	eq
    2b2c:	4770      	bxeq	lr
    2b2e:	f0c0 8124 	bcc.w	2d7a <__udivsi3+0x252>
    2b32:	4288      	cmp	r0, r1
    2b34:	f240 8116 	bls.w	2d64 <__udivsi3+0x23c>
    2b38:	4211      	tst	r1, r2
    2b3a:	f000 8117 	beq.w	2d6c <__udivsi3+0x244>
    2b3e:	fab0 f380 	clz	r3, r0
    2b42:	fab1 f281 	clz	r2, r1
    2b46:	eba2 0303 	sub.w	r3, r2, r3
    2b4a:	f1c3 031f 	rsb	r3, r3, #31
    2b4e:	a204      	add	r2, pc, #16	; (adr r2, 2b60 <__udivsi3+0x38>)
    2b50:	eb02 1303 	add.w	r3, r2, r3, lsl #4
    2b54:	f04f 0200 	mov.w	r2, #0
    2b58:	469f      	mov	pc, r3
    2b5a:	bf00      	nop
    2b5c:	f3af 8000 	nop.w
    2b60:	ebb0 7fc1 	cmp.w	r0, r1, lsl #31
    2b64:	bf00      	nop
    2b66:	eb42 0202 	adc.w	r2, r2, r2
    2b6a:	bf28      	it	cs
    2b6c:	eba0 70c1 	subcs.w	r0, r0, r1, lsl #31
    2b70:	ebb0 7f81 	cmp.w	r0, r1, lsl #30
    2b74:	bf00      	nop
    2b76:	eb42 0202 	adc.w	r2, r2, r2
    2b7a:	bf28      	it	cs
    2b7c:	eba0 7081 	subcs.w	r0, r0, r1, lsl #30
    2b80:	ebb0 7f41 	cmp.w	r0, r1, lsl #29
    2b84:	bf00      	nop
    2b86:	eb42 0202 	adc.w	r2, r2, r2
    2b8a:	bf28      	it	cs
    2b8c:	eba0 7041 	subcs.w	r0, r0, r1, lsl #29
    2b90:	ebb0 7f01 	cmp.w	r0, r1, lsl #28
    2b94:	bf00      	nop
    2b96:	eb42 0202 	adc.w	r2, r2, r2
    2b9a:	bf28      	it	cs
    2b9c:	eba0 7001 	subcs.w	r0, r0, r1, lsl #28
    2ba0:	ebb0 6fc1 	cmp.w	r0, r1, lsl #27
    2ba4:	bf00      	nop
    2ba6:	eb42 0202 	adc.w	r2, r2, r2
    2baa:	bf28      	it	cs
    2bac:	eba0 60c1 	subcs.w	r0, r0, r1, lsl #27
    2bb0:	ebb0 6f81 	cmp.w	r0, r1, lsl #26
    2bb4:	bf00      	nop
    2bb6:	eb42 0202 	adc.w	r2, r2, r2
    2bba:	bf28      	it	cs
    2bbc:	eba0 6081 	subcs.w	r0, r0, r1, lsl #26
    2bc0:	ebb0 6f41 	cmp.w	r0, r1, lsl #25
    2bc4:	bf00      	nop
    2bc6:	eb42 0202 	adc.w	r2, r2, r2
    2bca:	bf28      	it	cs
    2bcc:	eba0 6041 	subcs.w	r0, r0, r1, lsl #25
    2bd0:	ebb0 6f01 	cmp.w	r0, r1, lsl #24
    2bd4:	bf00      	nop
    2bd6:	eb42 0202 	adc.w	r2, r2, r2
    2bda:	bf28      	it	cs
    2bdc:	eba0 6001 	subcs.w	r0, r0, r1, lsl #24
    2be0:	ebb0 5fc1 	cmp.w	r0, r1, lsl #23
    2be4:	bf00      	nop
    2be6:	eb42 0202 	adc.w	r2, r2, r2
    2bea:	bf28      	it	cs
    2bec:	eba0 50c1 	subcs.w	r0, r0, r1, lsl #23
    2bf0:	ebb0 5f81 	cmp.w	r0, r1, lsl #22
    2bf4:	bf00      	nop
    2bf6:	eb42 0202 	adc.w	r2, r2, r2
    2bfa:	bf28      	it	cs
    2bfc:	eba0 5081 	subcs.w	r0, r0, r1, lsl #22
    2c00:	ebb0 5f41 	cmp.w	r0, r1, lsl #21
    2c04:	bf00      	nop
    2c06:	eb42 0202 	adc.w	r2, r2, r2
    2c0a:	bf28      	it	cs
    2c0c:	eba0 5041 	subcs.w	r0, r0, r1, lsl #21
    2c10:	ebb0 5f01 	cmp.w	r0, r1, lsl #20
    2c14:	bf00      	nop
    2c16:	eb42 0202 	adc.w	r2, r2, r2
    2c1a:	bf28      	it	cs
    2c1c:	eba0 5001 	subcs.w	r0, r0, r1, lsl #20
    2c20:	ebb0 4fc1 	cmp.w	r0, r1, lsl #19
    2c24:	bf00      	nop
    2c26:	eb42 0202 	adc.w	r2, r2, r2
    2c2a:	bf28      	it	cs
    2c2c:	eba0 40c1 	subcs.w	r0, r0, r1, lsl #19
    2c30:	ebb0 4f81 	cmp.w	r0, r1, lsl #18
    2c34:	bf00      	nop
    2c36:	eb42 0202 	adc.w	r2, r2, r2
    2c3a:	bf28      	it	cs
    2c3c:	eba0 4081 	subcs.w	r0, r0, r1, lsl #18
    2c40:	ebb0 4f41 	cmp.w	r0, r1, lsl #17
    2c44:	bf00      	nop
    2c46:	eb42 0202 	adc.w	r2, r2, r2
    2c4a:	bf28      	it	cs
    2c4c:	eba0 4041 	subcs.w	r0, r0, r1, lsl #17
    2c50:	ebb0 4f01 	cmp.w	r0, r1, lsl #16
    2c54:	bf00      	nop
    2c56:	eb42 0202 	adc.w	r2, r2, r2
    2c5a:	bf28      	it	cs
    2c5c:	eba0 4001 	subcs.w	r0, r0, r1, lsl #16
    2c60:	ebb0 3fc1 	cmp.w	r0, r1, lsl #15
    2c64:	bf00      	nop
    2c66:	eb42 0202 	adc.w	r2, r2, r2
    2c6a:	bf28      	it	cs
    2c6c:	eba0 30c1 	subcs.w	r0, r0, r1, lsl #15
    2c70:	ebb0 3f81 	cmp.w	r0, r1, lsl #14
    2c74:	bf00      	nop
    2c76:	eb42 0202 	adc.w	r2, r2, r2
    2c7a:	bf28      	it	cs
    2c7c:	eba0 3081 	subcs.w	r0, r0, r1, lsl #14
    2c80:	ebb0 3f41 	cmp.w	r0, r1, lsl #13
    2c84:	bf00      	nop
    2c86:	eb42 0202 	adc.w	r2, r2, r2
    2c8a:	bf28      	it	cs
    2c8c:	eba0 3041 	subcs.w	r0, r0, r1, lsl #13
    2c90:	ebb0 3f01 	cmp.w	r0, r1, lsl #12
    2c94:	bf00      	nop
    2c96:	eb42 0202 	adc.w	r2, r2, r2
    2c9a:	bf28      	it	cs
    2c9c:	eba0 3001 	subcs.w	r0, r0, r1, lsl #12
    2ca0:	ebb0 2fc1 	cmp.w	r0, r1, lsl #11
    2ca4:	bf00      	nop
    2ca6:	eb42 0202 	adc.w	r2, r2, r2
    2caa:	bf28      	it	cs
    2cac:	eba0 20c1 	subcs.w	r0, r0, r1, lsl #11
    2cb0:	ebb0 2f81 	cmp.w	r0, r1, lsl #10
    2cb4:	bf00      	nop
    2cb6:	eb42 0202 	adc.w	r2, r2, r2
    2cba:	bf28      	it	cs
    2cbc:	eba0 2081 	subcs.w	r0, r0, r1, lsl #10
    2cc0:	ebb0 2f41 	cmp.w	r0, r1, lsl #9
    2cc4:	bf00      	nop
    2cc6:	eb42 0202 	adc.w	r2, r2, r2
    2cca:	bf28      	it	cs
    2ccc:	eba0 2041 	subcs.w	r0, r0, r1, lsl #9
    2cd0:	ebb0 2f01 	cmp.w	r0, r1, lsl #8
    2cd4:	bf00      	nop
    2cd6:	eb42 0202 	adc.w	r2, r2, r2
    2cda:	bf28      	it	cs
    2cdc:	eba0 2001 	subcs.w	r0, r0, r1, lsl #8
    2ce0:	ebb0 1fc1 	cmp.w	r0, r1, lsl #7
    2ce4:	bf00      	nop
    2ce6:	eb42 0202 	adc.w	r2, r2, r2
    2cea:	bf28      	it	cs
    2cec:	eba0 10c1 	subcs.w	r0, r0, r1, lsl #7
    2cf0:	ebb0 1f81 	cmp.w	r0, r1, lsl #6
    2cf4:	bf00      	nop
    2cf6:	eb42 0202 	adc.w	r2, r2, r2
    2cfa:	bf28      	it	cs
    2cfc:	eba0 1081 	subcs.w	r0, r0, r1, lsl #6
    2d00:	ebb0 1f41 	cmp.w	r0, r1, lsl #5
    2d04:	bf00      	nop
    2d06:	eb42 0202 	adc.w	r2, r2, r2
    2d0a:	bf28      	it	cs
    2d0c:	eba0 1041 	subcs.w	r0, r0, r1, lsl #5
    2d10:	ebb0 1f01 	cmp.w	r0, r1, lsl #4
    2d14:	bf00      	nop
    2d16:	eb42 0202 	adc.w	r2, r2, r2
    2d1a:	bf28      	it	cs
    2d1c:	eba0 1001 	subcs.w	r0, r0, r1, lsl #4
    2d20:	ebb0 0fc1 	cmp.w	r0, r1, lsl #3
    2d24:	bf00      	nop
    2d26:	eb42 0202 	adc.w	r2, r2, r2
    2d2a:	bf28      	it	cs
    2d2c:	eba0 00c1 	subcs.w	r0, r0, r1, lsl #3
    2d30:	ebb0 0f81 	cmp.w	r0, r1, lsl #2
    2d34:	bf00      	nop
    2d36:	eb42 0202 	adc.w	r2, r2, r2
    2d3a:	bf28      	it	cs
    2d3c:	eba0 0081 	subcs.w	r0, r0, r1, lsl #2
    2d40:	ebb0 0f41 	cmp.w	r0, r1, lsl #1
    2d44:	bf00      	nop
    2d46:	eb42 0202 	adc.w	r2, r2, r2
    2d4a:	bf28      	it	cs
    2d4c:	eba0 0041 	subcs.w	r0, r0, r1, lsl #1
    2d50:	ebb0 0f01 	cmp.w	r0, r1
    2d54:	bf00      	nop
    2d56:	eb42 0202 	adc.w	r2, r2, r2
    2d5a:	bf28      	it	cs
    2d5c:	eba0 0001 	subcs.w	r0, r0, r1
    2d60:	4610      	mov	r0, r2
    2d62:	4770      	bx	lr
    2d64:	bf0c      	ite	eq
    2d66:	2001      	moveq	r0, #1
    2d68:	2000      	movne	r0, #0
    2d6a:	4770      	bx	lr
    2d6c:	fab1 f281 	clz	r2, r1
    2d70:	f1c2 021f 	rsb	r2, r2, #31
    2d74:	fa20 f002 	lsr.w	r0, r0, r2
    2d78:	4770      	bx	lr
    2d7a:	b108      	cbz	r0, 2d80 <__udivsi3+0x258>
    2d7c:	f04f 30ff 	mov.w	r0, #4294967295
    2d80:	f000 b966 	b.w	3050 <__aeabi_idiv0>

00002d84 <__aeabi_uidivmod>:
    2d84:	2900      	cmp	r1, #0
    2d86:	d0f8      	beq.n	2d7a <__udivsi3+0x252>
    2d88:	e92d 4003 	stmdb	sp!, {r0, r1, lr}
    2d8c:	f7ff fecc 	bl	2b28 <__udivsi3>
    2d90:	e8bd 4006 	ldmia.w	sp!, {r1, r2, lr}
    2d94:	fb02 f300 	mul.w	r3, r2, r0
    2d98:	eba1 0103 	sub.w	r1, r1, r3
    2d9c:	4770      	bx	lr
    2d9e:	bf00      	nop

00002da0 <__divsi3>:
    2da0:	2900      	cmp	r1, #0
    2da2:	f000 813e 	beq.w	3022 <.divsi3_skip_div0_test+0x27c>

00002da6 <.divsi3_skip_div0_test>:
    2da6:	ea80 0c01 	eor.w	ip, r0, r1
    2daa:	bf48      	it	mi
    2dac:	4249      	negmi	r1, r1
    2dae:	1e4a      	subs	r2, r1, #1
    2db0:	f000 811f 	beq.w	2ff2 <.divsi3_skip_div0_test+0x24c>
    2db4:	0003      	movs	r3, r0
    2db6:	bf48      	it	mi
    2db8:	4243      	negmi	r3, r0
    2dba:	428b      	cmp	r3, r1
    2dbc:	f240 811e 	bls.w	2ffc <.divsi3_skip_div0_test+0x256>
    2dc0:	4211      	tst	r1, r2
    2dc2:	f000 8123 	beq.w	300c <.divsi3_skip_div0_test+0x266>
    2dc6:	fab3 f283 	clz	r2, r3
    2dca:	fab1 f081 	clz	r0, r1
    2dce:	eba0 0202 	sub.w	r2, r0, r2
    2dd2:	f1c2 021f 	rsb	r2, r2, #31
    2dd6:	a004      	add	r0, pc, #16	; (adr r0, 2de8 <.divsi3_skip_div0_test+0x42>)
    2dd8:	eb00 1202 	add.w	r2, r0, r2, lsl #4
    2ddc:	f04f 0000 	mov.w	r0, #0
    2de0:	4697      	mov	pc, r2
    2de2:	bf00      	nop
    2de4:	f3af 8000 	nop.w
    2de8:	ebb3 7fc1 	cmp.w	r3, r1, lsl #31
    2dec:	bf00      	nop
    2dee:	eb40 0000 	adc.w	r0, r0, r0
    2df2:	bf28      	it	cs
    2df4:	eba3 73c1 	subcs.w	r3, r3, r1, lsl #31
    2df8:	ebb3 7f81 	cmp.w	r3, r1, lsl #30
    2dfc:	bf00      	nop
    2dfe:	eb40 0000 	adc.w	r0, r0, r0
    2e02:	bf28      	it	cs
    2e04:	eba3 7381 	subcs.w	r3, r3, r1, lsl #30
    2e08:	ebb3 7f41 	cmp.w	r3, r1, lsl #29
    2e0c:	bf00      	nop
    2e0e:	eb40 0000 	adc.w	r0, r0, r0
    2e12:	bf28      	it	cs
    2e14:	eba3 7341 	subcs.w	r3, r3, r1, lsl #29
    2e18:	ebb3 7f01 	cmp.w	r3, r1, lsl #28
    2e1c:	bf00      	nop
    2e1e:	eb40 0000 	adc.w	r0, r0, r0
    2e22:	bf28      	it	cs
    2e24:	eba3 7301 	subcs.w	r3, r3, r1, lsl #28
    2e28:	ebb3 6fc1 	cmp.w	r3, r1, lsl #27
    2e2c:	bf00      	nop
    2e2e:	eb40 0000 	adc.w	r0, r0, r0
    2e32:	bf28      	it	cs
    2e34:	eba3 63c1 	subcs.w	r3, r3, r1, lsl #27
    2e38:	ebb3 6f81 	cmp.w	r3, r1, lsl #26
    2e3c:	bf00      	nop
    2e3e:	eb40 0000 	adc.w	r0, r0, r0
    2e42:	bf28      	it	cs
    2e44:	eba3 6381 	subcs.w	r3, r3, r1, lsl #26
    2e48:	ebb3 6f41 	cmp.w	r3, r1, lsl #25
    2e4c:	bf00      	nop
    2e4e:	eb40 0000 	adc.w	r0, r0, r0
    2e52:	bf28      	it	cs
    2e54:	eba3 6341 	subcs.w	r3, r3, r1, lsl #25
    2e58:	ebb3 6f01 	cmp.w	r3, r1, lsl #24
    2e5c:	bf00      	nop
    2e5e:	eb40 0000 	adc.w	r0, r0, r0
    2e62:	bf28      	it	cs
    2e64:	eba3 6301 	subcs.w	r3, r3, r1, lsl #24
    2e68:	ebb3 5fc1 	cmp.w	r3, r1, lsl #23
    2e6c:	bf00      	nop
    2e6e:	eb40 0000 	adc.w	r0, r0, r0
    2e72:	bf28      	it	cs
    2e74:	eba3 53c1 	subcs.w	r3, r3, r1, lsl #23
    2e78:	ebb3 5f81 	cmp.w	r3, r1, lsl #22
    2e7c:	bf00      	nop
    2e7e:	eb40 0000 	adc.w	r0, r0, r0
    2e82:	bf28      	it	cs
    2e84:	eba3 5381 	subcs.w	r3, r3, r1, lsl #22
    2e88:	ebb3 5f41 	cmp.w	r3, r1, lsl #21
    2e8c:	bf00      	nop
    2e8e:	eb40 0000 	adc.w	r0, r0, r0
    2e92:	bf28      	it	cs
    2e94:	eba3 5341 	subcs.w	r3, r3, r1, lsl #21
    2e98:	ebb3 5f01 	cmp.w	r3, r1, lsl #20
    2e9c:	bf00      	nop
    2e9e:	eb40 0000 	adc.w	r0, r0, r0
    2ea2:	bf28      	it	cs
    2ea4:	eba3 5301 	subcs.w	r3, r3, r1, lsl #20
    2ea8:	ebb3 4fc1 	cmp.w	r3, r1, lsl #19
    2eac:	bf00      	nop
    2eae:	eb40 0000 	adc.w	r0, r0, r0
    2eb2:	bf28      	it	cs
    2eb4:	eba3 43c1 	subcs.w	r3, r3, r1, lsl #19
    2eb8:	ebb3 4f81 	cmp.w	r3, r1, lsl #18
    2ebc:	bf00      	nop
    2ebe:	eb40 0000 	adc.w	r0, r0, r0
    2ec2:	bf28      	it	cs
    2ec4:	eba3 4381 	subcs.w	r3, r3, r1, lsl #18
    2ec8:	ebb3 4f41 	cmp.w	r3, r1, lsl #17
    2ecc:	bf00      	nop
    2ece:	eb40 0000 	adc.w	r0, r0, r0
    2ed2:	bf28      	it	cs
    2ed4:	eba3 4341 	subcs.w	r3, r3, r1, lsl #17
    2ed8:	ebb3 4f01 	cmp.w	r3, r1, lsl #16
    2edc:	bf00      	nop
    2ede:	eb40 0000 	adc.w	r0, r0, r0
    2ee2:	bf28      	it	cs
    2ee4:	eba3 4301 	subcs.w	r3, r3, r1, lsl #16
    2ee8:	ebb3 3fc1 	cmp.w	r3, r1, lsl #15
    2eec:	bf00      	nop
    2eee:	eb40 0000 	adc.w	r0, r0, r0
    2ef2:	bf28      	it	cs
    2ef4:	eba3 33c1 	subcs.w	r3, r3, r1, lsl #15
    2ef8:	ebb3 3f81 	cmp.w	r3, r1, lsl #14
    2efc:	bf00      	nop
    2efe:	eb40 0000 	adc.w	r0, r0, r0
    2f02:	bf28      	it	cs
    2f04:	eba3 3381 	subcs.w	r3, r3, r1, lsl #14
    2f08:	ebb3 3f41 	cmp.w	r3, r1, lsl #13
    2f0c:	bf00      	nop
    2f0e:	eb40 0000 	adc.w	r0, r0, r0
    2f12:	bf28      	it	cs
    2f14:	eba3 3341 	subcs.w	r3, r3, r1, lsl #13
    2f18:	ebb3 3f01 	cmp.w	r3, r1, lsl #12
    2f1c:	bf00      	nop
    2f1e:	eb40 0000 	adc.w	r0, r0, r0
    2f22:	bf28      	it	cs
    2f24:	eba3 3301 	subcs.w	r3, r3, r1, lsl #12
    2f28:	ebb3 2fc1 	cmp.w	r3, r1, lsl #11
    2f2c:	bf00      	nop
    2f2e:	eb40 0000 	adc.w	r0, r0, r0
    2f32:	bf28      	it	cs
    2f34:	eba3 23c1 	subcs.w	r3, r3, r1, lsl #11
    2f38:	ebb3 2f81 	cmp.w	r3, r1, lsl #10
    2f3c:	bf00      	nop
    2f3e:	eb40 0000 	adc.w	r0, r0, r0
    2f42:	bf28      	it	cs
    2f44:	eba3 2381 	subcs.w	r3, r3, r1, lsl #10
    2f48:	ebb3 2f41 	cmp.w	r3, r1, lsl #9
    2f4c:	bf00      	nop
    2f4e:	eb40 0000 	adc.w	r0, r0, r0
    2f52:	bf28      	it	cs
    2f54:	eba3 2341 	subcs.w	r3, r3, r1, lsl #9
    2f58:	ebb3 2f01 	cmp.w	r3, r1, lsl #8
    2f5c:	bf00      	nop
    2f5e:	eb40 0000 	adc.w	r0, r0, r0
    2f62:	bf28      	it	cs
    2f64:	eba3 2301 	subcs.w	r3, r3, r1, lsl #8
    2f68:	ebb3 1fc1 	cmp.w	r3, r1, lsl #7
    2f6c:	bf00      	nop
    2f6e:	eb40 0000 	adc.w	r0, r0, r0
    2f72:	bf28      	it	cs
    2f74:	eba3 13c1 	subcs.w	r3, r3, r1, lsl #7
    2f78:	ebb3 1f81 	cmp.w	r3, r1, lsl #6
    2f7c:	bf00      	nop
    2f7e:	eb40 0000 	adc.w	r0, r0, r0
    2f82:	bf28      	it	cs
    2f84:	eba3 1381 	subcs.w	r3, r3, r1, lsl #6
    2f88:	ebb3 1f41 	cmp.w	r3, r1, lsl #5
    2f8c:	bf00      	nop
    2f8e:	eb40 0000 	adc.w	r0, r0, r0
    2f92:	bf28      	it	cs
    2f94:	eba3 1341 	subcs.w	r3, r3, r1, lsl #5
    2f98:	ebb3 1f01 	cmp.w	r3, r1, lsl #4
    2f9c:	bf00      	nop
    2f9e:	eb40 0000 	adc.w	r0, r0, r0
    2fa2:	bf28      	it	cs
    2fa4:	eba3 1301 	subcs.w	r3, r3, r1, lsl #4
    2fa8:	ebb3 0fc1 	cmp.w	r3, r1, lsl #3
    2fac:	bf00      	nop
    2fae:	eb40 0000 	adc.w	r0, r0, r0
    2fb2:	bf28      	it	cs
    2fb4:	eba3 03c1 	subcs.w	r3, r3, r1, lsl #3
    2fb8:	ebb3 0f81 	cmp.w	r3, r1, lsl #2
    2fbc:	bf00      	nop
    2fbe:	eb40 0000 	adc.w	r0, r0, r0
    2fc2:	bf28      	it	cs
    2fc4:	eba3 0381 	subcs.w	r3, r3, r1, lsl #2
    2fc8:	ebb3 0f41 	cmp.w	r3, r1, lsl #1
    2fcc:	bf00      	nop
    2fce:	eb40 0000 	adc.w	r0, r0, r0
    2fd2:	bf28      	it	cs
    2fd4:	eba3 0341 	subcs.w	r3, r3, r1, lsl #1
    2fd8:	ebb3 0f01 	cmp.w	r3, r1
    2fdc:	bf00      	nop
    2fde:	eb40 0000 	adc.w	r0, r0, r0
    2fe2:	bf28      	it	cs
    2fe4:	eba3 0301 	subcs.w	r3, r3, r1
    2fe8:	f1bc 0f00 	cmp.w	ip, #0
    2fec:	bf48      	it	mi
    2fee:	4240      	negmi	r0, r0
    2ff0:	4770      	bx	lr
    2ff2:	ea9c 0f00 	teq	ip, r0
    2ff6:	bf48      	it	mi
    2ff8:	4240      	negmi	r0, r0
    2ffa:	4770      	bx	lr
    2ffc:	bf38      	it	cc
    2ffe:	2000      	movcc	r0, #0
    3000:	bf04      	itt	eq
    3002:	ea4f 70ec 	moveq.w	r0, ip, asr #31
    3006:	f040 0001 	orreq.w	r0, r0, #1
    300a:	4770      	bx	lr
    300c:	fab1 f281 	clz	r2, r1
    3010:	f1c2 021f 	rsb	r2, r2, #31
    3014:	f1bc 0f00 	cmp.w	ip, #0
    3018:	fa23 f002 	lsr.w	r0, r3, r2
    301c:	bf48      	it	mi
    301e:	4240      	negmi	r0, r0
    3020:	4770      	bx	lr
    3022:	2800      	cmp	r0, #0
    3024:	bfc8      	it	gt
    3026:	f06f 4000 	mvngt.w	r0, #2147483648	; 0x80000000
    302a:	bfb8      	it	lt
    302c:	f04f 4000 	movlt.w	r0, #2147483648	; 0x80000000
    3030:	f000 b80e 	b.w	3050 <__aeabi_idiv0>

00003034 <__aeabi_idivmod>:
    3034:	2900      	cmp	r1, #0
    3036:	d0f4      	beq.n	3022 <.divsi3_skip_div0_test+0x27c>
    3038:	e92d 4003 	stmdb	sp!, {r0, r1, lr}
    303c:	f7ff feb3 	bl	2da6 <.divsi3_skip_div0_test>
    3040:	e8bd 4006 	ldmia.w	sp!, {r1, r2, lr}
    3044:	fb02 f300 	mul.w	r3, r2, r0
    3048:	eba1 0103 	sub.w	r1, r1, r3
    304c:	4770      	bx	lr
    304e:	bf00      	nop

00003050 <__aeabi_idiv0>:
    3050:	4770      	bx	lr
    3052:	bf00      	nop

00003054 <_close>:
    3054:	f243 73ec 	movw	r3, #14316	; 0x37ec
    3058:	f2c0 0300 	movt	r3, #0
    305c:	2258      	movs	r2, #88	; 0x58
    305e:	f04f 30ff 	mov.w	r0, #4294967295
    3062:	601a      	str	r2, [r3, #0]
    3064:	4770      	bx	lr
    3066:	bf00      	nop

00003068 <_fstat>:
    3068:	f243 73ec 	movw	r3, #14316	; 0x37ec
    306c:	f2c0 0300 	movt	r3, #0
    3070:	2258      	movs	r2, #88	; 0x58
    3072:	f04f 30ff 	mov.w	r0, #4294967295
    3076:	601a      	str	r2, [r3, #0]
    3078:	4770      	bx	lr
    307a:	bf00      	nop

0000307c <_isatty>:
    307c:	f243 73ec 	movw	r3, #14316	; 0x37ec
    3080:	f2c0 0300 	movt	r3, #0
    3084:	2258      	movs	r2, #88	; 0x58
    3086:	2000      	movs	r0, #0
    3088:	601a      	str	r2, [r3, #0]
    308a:	4770      	bx	lr

0000308c <_lseek>:
    308c:	f243 73ec 	movw	r3, #14316	; 0x37ec
    3090:	f2c0 0300 	movt	r3, #0
    3094:	2258      	movs	r2, #88	; 0x58
    3096:	f04f 30ff 	mov.w	r0, #4294967295
    309a:	601a      	str	r2, [r3, #0]
    309c:	4770      	bx	lr
    309e:	bf00      	nop

000030a0 <_sbrk>:
    30a0:	f243 7244 	movw	r2, #14148	; 0x3744
    30a4:	f2c0 0200 	movt	r2, #0
    30a8:	f240 0100 	movw	r1, #0
    30ac:	f2c0 1100 	movt	r1, #256	; 0x100
    30b0:	6813      	ldr	r3, [r2, #0]
    30b2:	2b00      	cmp	r3, #0
    30b4:	bf08      	it	eq
    30b6:	460b      	moveq	r3, r1
    30b8:	4418      	add	r0, r3
    30ba:	6010      	str	r0, [r2, #0]
    30bc:	4618      	mov	r0, r3
    30be:	4770      	bx	lr

000030c0 <_exit>:
    30c0:	e7fe      	b.n	30c0 <_exit>
    30c2:	bf00      	nop

Disassembly of section .init:

000030c4 <_init>:
    30c4:	b5f8      	push	{r3, r4, r5, r6, r7, lr}
    30c6:	bf00      	nop
    30c8:	bcf8      	pop	{r3, r4, r5, r6, r7}
    30ca:	bc08      	pop	{r3}
    30cc:	469e      	mov	lr, r3
    30ce:	4770      	bx	lr

Disassembly of section .fini:

000030d0 <_fini>:
    30d0:	b5f8      	push	{r3, r4, r5, r6, r7, lr}
    30d2:	bf00      	nop
    30d4:	bcf8      	pop	{r3, r4, r5, r6, r7}
    30d6:	bc08      	pop	{r3}
    30d8:	469e      	mov	lr, r3
    30da:	4770      	bx	lr
